MPASM 5.55  TINYBLD16F1713_16MHZ_INT_19200BD   6-9-2014  15:12:36         PAGE  1


LOC  OBJECT CODE     LINE SOURCE TEXT
  VALUE

                      00001         radix   DEC
                      00002         
                      00003         ; change these lines accordingly to your application    
                      00004 #include "p16f1713.inc"
                      00001         LIST
                      00002 
                      00003 ;==========================================================================
                      00004 ;  MPASM PIC16F1713 processor include
                      00005 ; 
                      00006 ;  (c) Copyright 1999-2014 Microchip Technology, All rights reserved
                      00007 ;==========================================================================
                      00008 
                      02789         LIST
  00000027            00005 IdTypePIC = 0x27                ; , Please refer to the table below, must exists in "piccodes.ini"      
                      00006 #define max_flash  0x1000       ; in WORDS, not bytes!!! (= 'max flash memory' from "piccodes.ini" divid
                            ed by 2), Please refer to the table below
                      00007 
  00F42400            00008 xtal    EQU     16000000        ; you may also want to change: _HS_OSC _XT_OSC
  00004B00            00009 baud    EQU     19200           ; standard TinyBld baud rates: 115200 or 19200
                      00010 
  00000001            00011 change_RX       EQU     1               ; RX Pin 0:default 1:use rxPPS
  00000000            00012 rxPPS           EQU     0               ; Serial RX Pin select, Please refer to the table below
  00000001            00013 txPPS           EQU     1               ; Serial TX Pin select, Please refer to the table below
                      00014 
                      00015 ;   The above 8 lines can be changed and buid a bootloader for the desired frequency (and PIC type)
                      00016 
                      00017 ; +---------+--------+------------+------------+--------+-----------+--------+------+
                      00018 ; |IdTypePIC| Device | Erase_Page |   TX bit   | RX bit | max_flash | EEPROM | PDIP |
                      00019 ; +---------+--------+------------+------------+--------+-----------+--------+------+
                      00020 ; |   0x27  |16F1713 |  32 words  | PORTA(PPS) | C7(18) |  0x1000   |    0   |  28  |
                      00021 ; |   0x29  |16F1716 |  32 words  | PORTA(PPS) | C7(18) |  0x2000   |    0   |  28  |
                      00022 ; |   0x29  |16F1717 |  32 words  |PORTA/D(PPS)| C7(26) |  0x2000   |    0   |  40  |
                      00023 ; |   0x2B  |16F1718 |  32 words  | PORTA(PPS) | C7(18) |  0x4000   |    0   |  28  |
                      00024 ; |   0x2B  |16F1719 |  32 words  |PORTA/D(PPS)| C7(26) |  0x4000   |    0   |  40  |
                      00025 ; +---------+--------+------------+------------+--------+-----------+--------+------+
                      00026 
                      00027 ; +----------+------+----------+------+
                      00028 ; | register | BANK | register | BANK |
                      00029 ; +----------+------+----------+------+
                      00030 ; | PMCON1/2 |  3   |PMADRL/DAT|  3   |
                      00031 ; +----------+------+----------+------+
                      00032 
                      00033 ;<rxPPS> RXPPS:0x0E24 ,<txPPS> RxxPPS:0x0E90~
                      00034 ;+-----+-----+-----+-----+-----+-----+-----+-----+-----+-----+-----+-----+-----+-----+-----+-----+
                      00035 ;| BIT |value| BIT |value| BIT |value| BIT |value| BIT |value| BIT |value| BIT |value| BIT |value|
                      00036 ;+-----+-----+-----+-----+-----+-----+-----+-----+-----+-----+-----+-----+-----+-----+-----+-----+
                      00037 ;| RA0 |  0  | RA1 |  1  | RA2 |  2  | RA3 |  3  | RA4 |  4  | RA5 |  5  | RA6 |  6  | RA7 |  7  |
                      00038 ;+-----+-----+-----+-----+-----+-----+-----+-----+-----+-----+-----+-----+-----+-----+-----+-----+
                      00039 ;40pin only
                      00040 ;+-----+-----+-----+-----+-----+-----+-----+-----+-----+-----+-----+-----+-----+-----+-----+-----+
                      00041 ;| BIT |value| BIT |value| BIT |value| BIT |value| BIT |value| BIT |value| BIT |value| BIT |value|
                      00042 ;+-----+-----+-----+-----+-----+-----+-----+-----+-----+-----+-----+-----+-----+-----+-----+-----+
                      00043 ;| RD0 | 24  | RD1 | 25  | RD2 | 26  | RD3 | 27  | RD4 | 28  | RD5 | 29  | RD6 | 30  | RD7 | 31  |
MPASM 5.55  TINYBLD16F1713_16MHZ_INT_19200BD   6-9-2014  15:12:36         PAGE  2


LOC  OBJECT CODE     LINE SOURCE TEXT
  VALUE

                      00044 ;+-----+-----+-----+-----+-----+-----+-----+-----+-----+-----+-----+-----+-----+-----+-----+-----+
                      00045 
                      00046 
                      00047         ;********************************************************************
                      00048         ;       Tiny Bootloader         16F171x series          Size=100words
                      00049         ;       claudiu.chiculita@ugal.ro
                      00050         ;       http://www.etc.ugal.ro/cchiculita/software/picbootloader.htm
                      00051         ;
                      00052         ;
                      00053         ;       This program is only available in Tiny AVR/PIC Bootloader +.
                      00054         ;
                      00055         ;       Tiny AVR/PIC Bootloader +
                      00056         ;       https://sourceforge.net/projects/tinypicbootload/
                      00057         ;
                      00058         ;********************************************************************
                      00059 
                      00060         #include "spbrgselect.inc"
  00000000            00001 RoundResult SET 0                               ; Rounding function.  RoundResult = Round(aa/bb)
                      00002 Round   macro aa,bb
                      00003         LOCAL rr = aa/bb
                      00004         LOCAL d1 = aa - rr*bb
                      00005         LOCAL d2 = (rr+1)*bb - aa
                      00006 RoundResult = rr
                      00007         if d1 >= d2
                      00008 RoundResult++
                      00009         endif
                      00010         endm
                      00011 
  00000000            00012 AbsResult SET 0
                      00013 Abs             macro nr
                      00014         if nr>=0
                      00015 AbsResult = nr
                      00016         else
                      00017 AbsResult = -nr
                      00018         endif
                      00019         endm
                      00020                 
                      00021         Round xtal,(16*baud)
  0034                    M         LOCAL rr = xtal/(16*baud)
  6400                    M         LOCAL d1 = xtal - rr*(16*baud)
  4C00                    M         LOCAL d2 = (rr+1)*(16*baud) - xtal
  00000034                M RoundResult = rr
                          M         if d1 >= d2
                          M RoundResult++
                          M         endif
  00000033            00022 spbrg_value EQU RoundResult-1
                      00023 
                      00024         Round xtal,(16*(spbrg_value+1))
  4B1E                    M         LOCAL rr = xtal/(16*(spbrg_value+1))
  0280                    M         LOCAL d1 = xtal - rr*(16*(spbrg_value+1))
  00C0                    M         LOCAL d2 = (rr+1)*(16*(spbrg_value+1)) - xtal
  00004B1E                M RoundResult = rr
                          M         if d1 >= d2
MPASM 5.55  TINYBLD16F1713_16MHZ_INT_19200BD   6-9-2014  15:12:36         PAGE  3


LOC  OBJECT CODE     LINE SOURCE TEXT
  VALUE

  00004B1F                M RoundResult++
                          M         endif
  00004B1F            00025 baud_real EQU RoundResult
                      00026         Abs(baud_real-baud)
                          M         if (baud_real-baud)>=0
  0000001F                M AbsResult = (baud_real-baud)
                          M         else
                          M AbsResult = -(baud_real-baud)
                          M         endif
  00000000            00027 errpercent EQU AbsResult*100/baud
                      00028         if errpercent > 4
                      00029                 ERROR big error in baudrate: 0%
                      00030         endif
                      00031         if errpercent >= 2
                      00032                 messg baudrate not exact: 0%
                      00033         endif
                      00061 
                      00062         #define first_address max_flash-100 ; 100 word in size
                      00063 
Message[303]: Program word too large.  Truncated to core size. (C9C4)
8007   09C4           00064     __CONFIG _CONFIG1, _FOSC_INTOSC & _WDTE_OFF & _PWRTE_ON & _MCLRE_ON & _CP_OFF & _BOREN_OFF & _CLKOUT
                            EN_OFF & _IESO_OFF & _FCMEN_OFF
Message[303]: Program word too large.  Truncated to core size. (DC7B)
8008   1C7B           00065     __CONFIG _CONFIG2, _WRT_OFF & _PPS1WAY_OFF & _ZCDDIS_OFF & _PLLEN_OFF & _STVREN_OFF & _BORV_LO & _LP
                            BOR_OFF & _LVP_OFF
                      00066 
                      00067 
                      00068         errorlevel 1, -305              ; suppress warning msg that takes f as default
                      00069         
                      00070         cblock 0x7B
  0000007B            00071         crc
  0000007C            00072         i
  0000007D            00073         cnt1
  0000007E            00074         cnt2
  0000007F            00075         cnt3
                      00076         endc
                      00077         
                      00078 
                      00079 ;0000000000000000000000000 RESET 00000000000000000000000000
                      00080 
0000                  00081         org     0x0000
                      00082 ;       pagesel IntrareBootloader
                      00083 ;       goto    IntrareBootloader
0000   339F           00084         DW      0x339F          ;bra $-0x60
                      00085 
                      00086 ;view with TabSize=4
                      00087 ;&&&&&&&&&&&&&&&&&&&&&&&   START     &&&&&&&&&&&&&&&&&
                      00088 ;----------------------  Bootloader  ----------------------
                      00089 ;               
                      00090                                         ;PC_flash:    C1h          AddrH  AddrL  nr  ...(DataLo DataHi).
                            ..  crc
                      00091                                         ;PIC_response:   id   K                                         
                                    K
MPASM 5.55  TINYBLD16F1713_16MHZ_INT_19200BD   6-9-2014  15:12:36         PAGE  4


LOC  OBJECT CODE     LINE SOURCE TEXT
  VALUE

                      00092 
0F9C                  00093         org     first_address
                      00094 ;       nop
                      00095 ;       nop
                      00096 ;       nop
                      00097 ;       nop
0FA0                  00098         org     first_address+4
0FA0                  00099 IntrareBootloader:
                      00100                                         ;init int clock & serial port
0FA0   318F           00101         movlp   (max_flash>>8)-1
0FA1   3011           00102         movlw   PIR1                    ;FSR1=PIR1
0FA2   0086           00103         movwf   FSR1L
                      00104 
0FA3   003C           00105         movlb   .28                     ;BANK28
0FA4   3055           00106         movlw   0x55                    ;unlock pps
0FA5   008F           00107         movwf   PPSLOCK
0FA6   30AA           00108         movlw   0xAA
0FA7   008F           00109         movwf   PPSLOCK
0FA8   100F           00110         bcf     PPSLOCK,PPSLOCKED
                      00111 #if (change_RX==1)
0FA9   3000           00112         movlw   rxPPS                   ;set RX
0FAA   00A4           00113         movwf   RXPPS
                      00114 #endif
0FAB   003D           00115         movlb   .29                     ;BANK29
0FAC   3014           00116         movlw   B'00010100'             ;set TX
0FAD   0091           00117         movwf   RA0PPS+txPPS
0FAE   003C           00118         movlb   .28                     ;BANK28
0FAF   3055           00119         movlw   0x55                    ;lock pps
0FB0   008F           00120         movwf   PPSLOCK
0FB1   30AA           00121         movlw   0xAA
0FB2   008F           00122         movwf   PPSLOCK
0FB3   140F           00123         bsf     PPSLOCK,PPSLOCKED
                      00124 
0FB4   0021           00125         movlb   0x01                    ;BANK1
0FB5   1719           00126         bsf     OSCCON,6                ;internal clock 16MHz
                      00127 
0FB6   0023           00128         movlb   0x03                    ;BANK3
0FB7   018E           00129         clrf    ANSELA+2                ;ANSELC
                      00130 
                      00131  #if ((txPPS/8==0) | (rxPPS/8==0))
0FB8   018C           00132         clrf    ANSELA                  ;ANSELA
                      00133  #endif
                      00134  #if ((txPPS/8==3) | (rxPPS/8==3))
                      00135         clrf    ANSELA+3                ;ANSELD
                      00136  #endif
                      00137 
0FB9   3024           00138         movlw   b'00100100'
0FBA   009E           00139         movwf   TXSTA
0FBB   3033           00140         movlw   spbrg_value
0FBC   009B           00141         movwf   SPBRGL
0FBD   3090           00142         movlw   b'10010000'
0FBE   009D           00143         movwf   RCSTA
                      00144                                         ;wait for computer
MPASM 5.55  TINYBLD16F1713_16MHZ_INT_19200BD   6-9-2014  15:12:36         PAGE  5


LOC  OBJECT CODE     LINE SOURCE TEXT
  VALUE

0FBF   27E0           00145         call    Receive                 
0FC0   3CC1           00146         sublw   0xC1                    ;Expect C1
0FC1   1D03           00147         skpz
0FC2   322C           00148         bra     way_to_exit
0FC3   3027           00149         movlw   IdTypePIC               ;PIC type
0FC4   009A           00150         movwf   TXREG
                      00151 ;       SendL   IdSoftVer               ;firmware ver x
                      00152 
0FC5                  00153 MainLoop:
0FC5   3042           00154         movlw   'B'
0FC6                  00155 mainl:
0FC6   009A           00156         movwf   TXREG
0FC7   01FB           00157         clrf    crc
0FC8   27E0           00158         call    Receive                 ;H
0FC9   0092           00159         movwf   PMADRH
0FCA   27E0           00160         call    Receive                 ;L
0FCB   0091           00161         movwf   PMADRL
0FCC   27E0           00162         call    Receive                 ;count
0FCD   00FC           00163         movwf   i
                      00164 
0FCE                  00165 rcvoct:
0FCE   27E0           00166         call    Receive                 ;data L
0FCF   0093           00167         movwf   PMDATL
0FD0   03FC           00168         decf    i,f
0FD1   27E0           00169         call    Receive                 ;data H
0FD2   0094           00170         movwf   PMDATH
0FD3   3024           00171         movlw   ((1<<LWLO) | (1<<WREN))
0FD4   27F5           00172         call    wr_w                    ;write Latches
0FD5   0A91           00173         incf    PMADRL,f
0FD6   0BFC           00174         decfsz  i,f
0FD7   33F6           00175         bra     rcvoct
                      00176 
0FD8   27E0           00177         call    Receive                 ;crc
0FD9                  00178 ziieroare:
0FD9   304E           00179         movlw   'N'
0FDA   1D03           00180         skpz
0FDB   33EA           00181         bra     mainl
                      00182 
0FDC   0391           00183         decf    PMADRL,f                ;PMADRL=PMADRL-1
0FDD   27F4           00184         call    wr_e                    ;erase operation
0FDE   27F5           00185         call    wr_w                    ;write operation
0FDF   33E5           00186         bra     MainLoop
                      00187 
                      00188 
0FE0                  00189 Receive:
0FE0   300A           00190         movlw   xtal/2000000+2          ;for 20MHz => 11 => 1second
0FE1   00FD           00191         movwf   cnt1
0FE2                  00192 rpt2:
0FE2   01FE           00193         clrf    cnt2
0FE3                  00194 rpt3:
0FE3   01FF           00195         clrf    cnt3
0FE4                  00196 rptc:
0FE4   1E81           00197         btfss   INDF1,RCIF              ;test RX
MPASM 5.55  TINYBLD16F1713_16MHZ_INT_19200BD   6-9-2014  15:12:36         PAGE  6


LOC  OBJECT CODE     LINE SOURCE TEXT
  VALUE

0FE5   3203           00198         bra     $+4                     ;not recive
0FE6   0819           00199         movf    RCREG,w                 ;return in w
0FE7   07FB           00200         addwf   crc,f                   ;compute checksum
0FE8   0008           00201         return
                      00202 
0FE9   0BFF           00203         decfsz  cnt3,f
0FEA   33F9           00204         bra     rptc
0FEB   0BFE           00205         decfsz  cnt2,f
0FEC   33F6           00206         bra     rpt3
0FED   0BFD           00207         decfsz  cnt1,f
0FEE   33F3           00208         bra     rpt2
                      00209                                         ;timeout:
0FEF                  00210 way_to_exit:                            ;exit in all other cases; must be BANK3
0FEF   0195           00211         clrf    PMCON1
0FF0   139D           00212         bcf     RCSTA,SPEN              ;deactivate UART
0FF1   0020           00213         movlb   0x00                    ;BANK0
0FF2   018A           00214         clrf    PCLATH
0FF3   33A8           00215         bra     first_address           ; PCLATH=0, Please do not change the GOTO instruction.
                      00216 
0FF4                  00217 wr_e:
0FF4   3014           00218         movlw   ((1<<FREE) | (1<<WREN))
0FF5                  00219 wr_w:
0FF5   0095           00220         movwf   PMCON1
0FF6   3055           00221         movlw   0x55
0FF7   0096           00222         movwf   PMCON2
0FF8   30AA           00223         movlw   0xaa
0FF9   0096           00224         movwf   PMCON2
0FFA   1495           00225         bsf     PMCON1,WR
0FFB   0000           00226         nop
0FFC   0000           00227         nop
0FFD   3404           00228         retlw   ((1<<WREN))
                      00229 
                      00230 ;*************************************************************
                      00231 ; After reset
                      00232 ; Do not expect the memory to be zero,
                      00233 ; Do not expect registers to be initialised like in catalog.
                      00234 
                      00235          end
MPASM 5.55  TINYBLD16F1713_16MHZ_INT_19200BD   6-9-2014  15:12:36         PAGE  7


SYMBOL TABLE
  LABEL                             VALUE 

ABDEN                             00000000
ABDOVF                            00000007
ACKDT                             00000005
ACKEN                             00000004
ACKSTAT                           00000006
ACKTIM                            00000007
ADCON0                            0000009D
ADCON1                            0000009E
ADCON2                            0000009F
ADD0                              00000000
ADD1                              00000001
ADD2                              00000002
ADD3                              00000003
ADD4                              00000004
ADD5                              00000005
ADD6                              00000006
ADD7                              00000007
ADDEN                             00000003
ADFM                              00000007
ADFVR0                            00000000
ADFVR1                            00000001
ADGO                              00000001
ADIE                              00000006
ADIF                              00000006
ADNREF                            00000002
ADON                              00000000
ADPREF0                           00000000
ADPREF1                           00000001
ADRES                             0000009B
ADRESH                            0000009C
ADRESL                            0000009B
AHEN                              00000001
ANSA0                             00000000
ANSA1                             00000001
ANSA2                             00000002
ANSA3                             00000003
ANSA4                             00000004
ANSA5                             00000005
ANSB0                             00000000
ANSB1                             00000001
ANSB2                             00000002
ANSB3                             00000003
ANSB4                             00000004
ANSB5                             00000005
ANSC2                             00000002
ANSC3                             00000003
ANSC4                             00000004
ANSC5                             00000005
ANSC6                             00000006
ANSC7                             00000007
ANSELA                            0000018C
ANSELB                            0000018D
ANSELC                            0000018E
MPASM 5.55  TINYBLD16F1713_16MHZ_INT_19200BD   6-9-2014  15:12:36         PAGE  8


SYMBOL TABLE
  LABEL                             VALUE 

Abs                               
AbsResult                         0000001F
BAUD1CON                          0000019F
BAUDCON                           0000019F
BAUDCON1                          0000019F
BAUDCTL                           0000019F
BAUDCTL1                          0000019F
BCL1IE                            00000003
BCL1IF                            00000003
BF                                00000000
BOEN                              00000004
BORCON                            00000116
BORFS                             00000006
BORRDY                            00000000
BRG16                             00000003
BRGH                              00000002
BSR                               00000008
BSR0                              00000000
BSR1                              00000001
BSR2                              00000002
BSR3                              00000003
BSR4                              00000004
BSR_SHAD                          00000FE6
BUF0                              00000000
BUF1                              00000001
BUF2                              00000002
BUF3                              00000003
BUF4                              00000004
BUF5                              00000005
BUF6                              00000006
BUF7                              00000007
C                                 00000000
C1HYS                             00000001
C1IE                              00000005
C1IF                              00000005
C1INTN                            00000006
C1INTP                            00000007
C1NCH0                            00000000
C1NCH1                            00000001
C1NCH2                            00000002
C1ON                              00000007
C1OUT                             00000006
C1PCH0                            00000003
C1PCH1                            00000004
C1PCH2                            00000005
C1POL                             00000004
C1SP                              00000002
C1SYNC                            00000000
C1TSEL0                           00000000
C1TSEL1                           00000001
C1ZLF                             00000003
C2HYS                             00000001
C2IE                              00000006
MPASM 5.55  TINYBLD16F1713_16MHZ_INT_19200BD   6-9-2014  15:12:36         PAGE  9


SYMBOL TABLE
  LABEL                             VALUE 

C2IF                              00000006
C2INTN                            00000006
C2INTP                            00000007
C2NCH0                            00000000
C2NCH1                            00000001
C2NCH2                            00000002
C2ON                              00000007
C2OUT                             00000006
C2PCH0                            00000003
C2PCH1                            00000004
C2PCH2                            00000005
C2POL                             00000004
C2SP                              00000002
C2SYNC                            00000000
C2TSEL0                           00000002
C2TSEL1                           00000003
C2ZLF                             00000003
CCP1CON                           00000293
CCP1IE                            00000002
CCP1IF                            00000002
CCP1M0                            00000000
CCP1M1                            00000001
CCP1M2                            00000002
CCP1M3                            00000003
CCP1PPS                           00000E14
CCP1X                             00000005
CCP1Y                             00000004
CCP2CON                           0000029A
CCP2IE                            00000000
CCP2IF                            00000000
CCP2M0                            00000000
CCP2M1                            00000001
CCP2M2                            00000002
CCP2M3                            00000003
CCP2PPS                           00000E15
CCP2X                             00000005
CCP2Y                             00000004
CCPR1                             00000291
CCPR1H                            00000292
CCPR1L                            00000291
CCPR2                             00000298
CCPR2H                            00000299
CCPR2L                            00000298
CCPTMRS                           0000029E
CDAFVR0                           00000002
CDAFVR1                           00000003
CFGS                              00000006
CHS0                              00000002
CHS1                              00000003
CHS2                              00000004
CHS3                              00000005
CHS4                              00000006
CKE                               00000006
MPASM 5.55  TINYBLD16F1713_16MHZ_INT_19200BD   6-9-2014  15:12:36         PAGE 10


SYMBOL TABLE
  LABEL                             VALUE 

CKP                               00000004
CKPPS                             00000E25
CLC1CON                           00000F10
CLC1GLS0                          00000F16
CLC1GLS1                          00000F17
CLC1GLS2                          00000F18
CLC1GLS3                          00000F19
CLC1IE                            00000000
CLC1IF                            00000000
CLC1POL                           00000F11
CLC1SEL0                          00000F12
CLC1SEL1                          00000F13
CLC1SEL2                          00000F14
CLC1SEL3                          00000F15
CLC2CON                           00000F1A
CLC2GLS0                          00000F20
CLC2GLS1                          00000F21
CLC2GLS2                          00000F22
CLC2GLS3                          00000F23
CLC2IE                            00000001
CLC2IF                            00000001
CLC2POL                           00000F1B
CLC2SEL0                          00000F1C
CLC2SEL1                          00000F1D
CLC2SEL2                          00000F1E
CLC2SEL3                          00000F1F
CLC3CON                           00000F24
CLC3GLS0                          00000F2A
CLC3GLS1                          00000F2B
CLC3GLS2                          00000F2C
CLC3GLS3                          00000F2D
CLC3IE                            00000002
CLC3IF                            00000002
CLC3POL                           00000F25
CLC3SEL0                          00000F26
CLC3SEL1                          00000F27
CLC3SEL2                          00000F28
CLC3SEL3                          00000F29
CLC4CON                           00000F2E
CLC4GLS0                          00000F34
CLC4GLS1                          00000F35
CLC4GLS2                          00000F36
CLC4GLS3                          00000F37
CLC4IE                            00000003
CLC4IF                            00000003
CLC4POL                           00000F2F
CLC4SEL0                          00000F30
CLC4SEL1                          00000F31
CLC4SEL2                          00000F32
CLC4SEL3                          00000F33
CLCDATA                           00000F0F
CLCIN0PPS                         00000E28
CLCIN1PPS                         00000E29
MPASM 5.55  TINYBLD16F1713_16MHZ_INT_19200BD   6-9-2014  15:12:36         PAGE 11


SYMBOL TABLE
  LABEL                             VALUE 

CLCIN2PPS                         00000E2A
CLCIN3PPS                         00000E2B
CM1CON0                           00000111
CM1CON1                           00000112
CM2CON0                           00000113
CM2CON1                           00000114
CMOUT                             00000115
COG1ASD0                          0000069D
COG1ASD1                          0000069E
COG1BLKF                          00000694
COG1BLKR                          00000693
COG1CON0                          00000697
COG1CON1                          00000698
COG1DBF                           00000696
COG1DBR                           00000695
COG1FIS                           0000069B
COG1FSIM                          0000069C
COG1PHF                           00000692
COG1PHR                           00000691
COG1RIS                           00000699
COG1RSIM                          0000069A
COG1STR                           0000069F
COGIE                             00000005
COGIF                             00000005
COGINPPS                          00000E17
CREN                              00000004
CSRC                              00000007
C_SHAD                            00000000
D1N                               00000000
D1S0                              00000000
D1S1                              00000001
D1S2                              00000002
D1S3                              00000003
D1S4                              00000004
D1T                               00000001
D2N                               00000002
D2S0                              00000000
D2S1                              00000001
D2S2                              00000002
D2S3                              00000003
D2S4                              00000004
D2T                               00000003
D3N                               00000004
D3S0                              00000000
D3S1                              00000001
D3S2                              00000002
D3S3                              00000003
D3S4                              00000004
D3T                               00000005
D4N                               00000006
D4S0                              00000000
D4S1                              00000001
D4S2                              00000002
MPASM 5.55  TINYBLD16F1713_16MHZ_INT_19200BD   6-9-2014  15:12:36         PAGE 12


SYMBOL TABLE
  LABEL                             VALUE 

D4S3                              00000003
D4S4                              00000004
D4S5                              00000005
D4S6                              00000006
D4S7                              00000007
D4T                               00000007
DAC1CON0                          00000118
DAC1CON1                          00000119
DAC1EN                            00000007
DAC1NSS                           00000000
DAC1OE1                           00000005
DAC1OE2                           00000004
DAC1PSS0                          00000002
DAC1PSS1                          00000003
DAC1R0                            00000000
DAC1R1                            00000001
DAC1R2                            00000002
DAC1R3                            00000003
DAC1R4                            00000004
DAC1R5                            00000005
DAC1R6                            00000006
DAC1R7                            00000007
DAC2CON0                          0000011A
DAC2CON1                          0000011B
DAC2EN                            00000007
DAC2NSS                           00000000
DAC2OE1                           00000005
DAC2OE2                           00000004
DAC2PSS0                          00000002
DAC2PSS1                          00000003
DAC2R0                            00000000
DAC2R1                            00000001
DAC2R2                            00000002
DAC2R3                            00000003
DAC2R4                            00000004
DACEN                             00000007
DACNSS                            00000000
DACOE0                            00000004
DACOE1                            00000005
DACOE2                            00000004
DACPSS0                           00000002
DACPSS1                           00000003
DACR0                             00000000
DACR1                             00000001
DACR2                             00000002
DACR3                             00000003
DACR4                             00000004
DACR5                             00000005
DACR6                             00000006
DACR7                             00000007
DC                                00000001
DC1B0                             00000004
DC1B1                             00000005
MPASM 5.55  TINYBLD16F1713_16MHZ_INT_19200BD   6-9-2014  15:12:36         PAGE 13


SYMBOL TABLE
  LABEL                             VALUE 

DC2B0                             00000004
DC2B1                             00000005
DC_SHAD                           00000001
DHEN                              00000000
D_NOT_A                           00000005
ECCP1CON                          00000293
ECCP2CON                          0000029A
EN                                00000007
F                                 00000001
FERR                              00000002
FREE                              00000004
FSR0                              00000004
FSR0H                             00000005
FSR0H_SHAD                        00000FE9
FSR0L                             00000004
FSR0L_SHAD                        00000FE8
FSR1                              00000006
FSR1H                             00000007
FSR1H_SHAD                        00000FEB
FSR1L                             00000006
FSR1L_SHAD                        00000FEA
FVRCON                            00000117
FVREN                             00000007
FVRRDY                            00000006
G1ARSEN                           00000006
G1AS0E                            00000000
G1AS1E                            00000001
G1AS2E                            00000002
G1AS3E                            00000003
G1ASDAC0                          00000002
G1ASDAC1                          00000003
G1ASDBD0                          00000004
G1ASDBD1                          00000005
G1ASE                             00000007
G1BLKF0                           00000000
G1BLKF1                           00000001
G1BLKF2                           00000002
G1BLKF3                           00000003
G1BLKF4                           00000004
G1BLKF5                           00000005
G1BLKR0                           00000000
G1BLKR1                           00000001
G1BLKR2                           00000002
G1BLKR3                           00000003
G1BLKR4                           00000004
G1BLKR5                           00000005
G1CS0                             00000003
G1CS1                             00000004
G1DBF0                            00000000
G1DBF1                            00000001
G1DBF2                            00000002
G1DBF3                            00000003
G1DBF4                            00000004
MPASM 5.55  TINYBLD16F1713_16MHZ_INT_19200BD   6-9-2014  15:12:36         PAGE 14


SYMBOL TABLE
  LABEL                             VALUE 

G1DBF5                            00000005
G1DBR0                            00000000
G1DBR1                            00000001
G1DBR2                            00000002
G1DBR3                            00000003
G1DBR4                            00000004
G1DBR5                            00000005
G1EN                              00000007
G1FDBS                            00000006
G1FIS0                            00000000
G1FIS1                            00000001
G1FIS2                            00000002
G1FIS3                            00000003
G1FIS4                            00000004
G1FIS5                            00000005
G1FIS6                            00000006
G1FIS7                            00000007
G1FSIM0                           00000000
G1FSIM1                           00000001
G1FSIM2                           00000002
G1FSIM3                           00000003
G1FSIM4                           00000004
G1FSIM5                           00000005
G1FSIM6                           00000006
G1FSIM7                           00000007
G1LD                              00000006
G1MD0                             00000000
G1MD1                             00000001
G1MD2                             00000002
G1PHF0                            00000000
G1PHF1                            00000001
G1PHF2                            00000002
G1PHF3                            00000003
G1PHF4                            00000004
G1PHF5                            00000005
G1PHR0                            00000000
G1PHR1                            00000001
G1PHR2                            00000002
G1PHR3                            00000003
G1PHR4                            00000004
G1PHR5                            00000005
G1POL                             00000000
G1POLA                            00000000
G1POLB                            00000001
G1POLC                            00000002
G1POLD                            00000003
G1RDBS                            00000007
G1RIS0                            00000000
G1RIS1                            00000001
G1RIS2                            00000002
G1RIS3                            00000003
G1RIS4                            00000004
G1RIS5                            00000005
MPASM 5.55  TINYBLD16F1713_16MHZ_INT_19200BD   6-9-2014  15:12:36         PAGE 15


SYMBOL TABLE
  LABEL                             VALUE 

G1RIS6                            00000006
G1RIS7                            00000007
G1RSIM0                           00000000
G1RSIM1                           00000001
G1RSIM2                           00000002
G1RSIM3                           00000003
G1RSIM4                           00000004
G1RSIM5                           00000005
G1RSIM6                           00000006
G1RSIM7                           00000007
G1SDATA                           00000004
G1SDATB                           00000005
G1SDATC                           00000006
G1SDATD                           00000007
G1STRA                            00000000
G1STRB                            00000001
G1STRC                            00000002
G1STRD                            00000003
G2POL                             00000001
G3POL                             00000002
G4D1N                             00000000
G4D1T                             00000001
G4D2N                             00000002
G4D2T                             00000003
G4D3N                             00000004
G4D3T                             00000005
G4D4N                             00000006
G4D4T                             00000007
G4POL                             00000003
GCEN                              00000007
GIE                               00000007
GO                                00000001
GO_NOT_DONE                       00000001
HFIOFL                            00000003
HFIOFR                            00000004
HFIOFS                            00000000
INDF0                             00000000
INDF1                             00000001
INLVLA                            0000038C
INLVLA0                           00000000
INLVLA1                           00000001
INLVLA2                           00000002
INLVLA3                           00000003
INLVLA4                           00000004
INLVLA5                           00000005
INLVLA6                           00000006
INLVLA7                           00000007
INLVLB                            0000038D
INLVLB0                           00000000
INLVLB1                           00000001
INLVLB2                           00000002
INLVLB3                           00000003
INLVLB4                           00000004
MPASM 5.55  TINYBLD16F1713_16MHZ_INT_19200BD   6-9-2014  15:12:36         PAGE 16


SYMBOL TABLE
  LABEL                             VALUE 

INLVLB5                           00000005
INLVLB6                           00000006
INLVLB7                           00000007
INLVLC                            0000038E
INLVLC0                           00000000
INLVLC1                           00000001
INLVLC2                           00000002
INLVLC3                           00000003
INLVLC4                           00000004
INLVLC5                           00000005
INLVLC6                           00000006
INLVLC7                           00000007
INLVLE                            00000390
INLVLE3                           00000003
INTCON                            0000000B
INTE                              00000004
INTEDG                            00000006
INTF                              00000001
INTN                              00000003
INTP                              00000004
INTPPS                            00000E10
IOCAF                             00000393
IOCAF0                            00000000
IOCAF1                            00000001
IOCAF2                            00000002
IOCAF3                            00000003
IOCAF4                            00000004
IOCAF5                            00000005
IOCAF6                            00000006
IOCAF7                            00000007
IOCAN                             00000392
IOCAN0                            00000000
IOCAN1                            00000001
IOCAN2                            00000002
IOCAN3                            00000003
IOCAN4                            00000004
IOCAN5                            00000005
IOCAN6                            00000006
IOCAN7                            00000007
IOCAP                             00000391
IOCAP0                            00000000
IOCAP1                            00000001
IOCAP2                            00000002
IOCAP3                            00000003
IOCAP4                            00000004
IOCAP5                            00000005
IOCAP6                            00000006
IOCAP7                            00000007
IOCBF                             00000396
IOCBF0                            00000000
IOCBF1                            00000001
IOCBF2                            00000002
IOCBF3                            00000003
MPASM 5.55  TINYBLD16F1713_16MHZ_INT_19200BD   6-9-2014  15:12:36         PAGE 17


SYMBOL TABLE
  LABEL                             VALUE 

IOCBF4                            00000004
IOCBF5                            00000005
IOCBF6                            00000006
IOCBF7                            00000007
IOCBN                             00000395
IOCBN0                            00000000
IOCBN1                            00000001
IOCBN2                            00000002
IOCBN3                            00000003
IOCBN4                            00000004
IOCBN5                            00000005
IOCBN6                            00000006
IOCBN7                            00000007
IOCBP                             00000394
IOCBP0                            00000000
IOCBP1                            00000001
IOCBP2                            00000002
IOCBP3                            00000003
IOCBP4                            00000004
IOCBP5                            00000005
IOCBP6                            00000006
IOCBP7                            00000007
IOCCF                             00000399
IOCCF0                            00000000
IOCCF1                            00000001
IOCCF2                            00000002
IOCCF3                            00000003
IOCCF4                            00000004
IOCCF5                            00000005
IOCCF6                            00000006
IOCCF7                            00000007
IOCCN                             00000398
IOCCN0                            00000000
IOCCN1                            00000001
IOCCN2                            00000002
IOCCN3                            00000003
IOCCN4                            00000004
IOCCN5                            00000005
IOCCN6                            00000006
IOCCN7                            00000007
IOCCP                             00000397
IOCCP0                            00000000
IOCCP1                            00000001
IOCCP2                            00000002
IOCCP3                            00000003
IOCCP4                            00000004
IOCCP5                            00000005
IOCCP6                            00000006
IOCCP7                            00000007
IOCEF                             0000039F
IOCEF3                            00000003
IOCEN                             0000039E
IOCEN3                            00000003
MPASM 5.55  TINYBLD16F1713_16MHZ_INT_19200BD   6-9-2014  15:12:36         PAGE 18


SYMBOL TABLE
  LABEL                             VALUE 

IOCEP                             0000039D
IOCEP3                            00000003
IOCIE                             00000003
IOCIF                             00000000
IRCF0                             00000003
IRCF1                             00000004
IRCF2                             00000005
IRCF3                             00000006
IdTypePIC                         00000027
IntrareBootloader                 00000FA0
LATA                              0000010C
LATA0                             00000000
LATA1                             00000001
LATA2                             00000002
LATA3                             00000003
LATA4                             00000004
LATA5                             00000005
LATA6                             00000006
LATA7                             00000007
LATB                              0000010D
LATB0                             00000000
LATB1                             00000001
LATB2                             00000002
LATB3                             00000003
LATB4                             00000004
LATB5                             00000005
LATB6                             00000006
LATB7                             00000007
LATC                              0000010E
LATC0                             00000000
LATC1                             00000001
LATC2                             00000002
LATC3                             00000003
LATC4                             00000004
LATC5                             00000005
LATC6                             00000006
LATC7                             00000007
LC1D1S0                           00000000
LC1D1S1                           00000001
LC1D1S2                           00000002
LC1D1S3                           00000003
LC1D1S4                           00000004
LC1D2S0                           00000000
LC1D2S1                           00000001
LC1D2S2                           00000002
LC1D2S3                           00000003
LC1D2S4                           00000004
LC1D3S0                           00000000
LC1D3S1                           00000001
LC1D3S2                           00000002
LC1D3S3                           00000003
LC1D3S4                           00000004
LC1D4S0                           00000000
MPASM 5.55  TINYBLD16F1713_16MHZ_INT_19200BD   6-9-2014  15:12:36         PAGE 19


SYMBOL TABLE
  LABEL                             VALUE 

LC1D4S1                           00000001
LC1D4S2                           00000002
LC1D4S3                           00000003
LC1D4S4                           00000004
LC1EN                             00000007
LC1G1D1N                          00000000
LC1G1D1T                          00000001
LC1G1D2N                          00000002
LC1G1D2T                          00000003
LC1G1D3N                          00000004
LC1G1D3T                          00000005
LC1G1D4N                          00000006
LC1G1D4T                          00000007
LC1G1POL                          00000000
LC1G2D1N                          00000000
LC1G2D1T                          00000001
LC1G2D2N                          00000002
LC1G2D2T                          00000003
LC1G2D3N                          00000004
LC1G2D3T                          00000005
LC1G2D4N                          00000006
LC1G2D4T                          00000007
LC1G2POL                          00000001
LC1G3D1N                          00000000
LC1G3D1T                          00000001
LC1G3D2N                          00000002
LC1G3D2T                          00000003
LC1G3D3N                          00000004
LC1G3D3T                          00000005
LC1G3D4N                          00000006
LC1G3D4T                          00000007
LC1G3POL                          00000002
LC1G4D1N                          00000000
LC1G4D1T                          00000001
LC1G4D2N                          00000002
LC1G4D2T                          00000003
LC1G4D3N                          00000004
LC1G4D3T                          00000005
LC1G4D4N                          00000006
LC1G4D4T                          00000007
LC1G4POL                          00000003
LC1INTN                           00000003
LC1INTP                           00000004
LC1MODE0                          00000000
LC1MODE1                          00000001
LC1MODE2                          00000002
LC1OUT                            00000005
LC1POL                            00000007
LC2D1S0                           00000000
LC2D1S1                           00000001
LC2D1S2                           00000002
LC2D1S3                           00000003
LC2D1S4                           00000004
MPASM 5.55  TINYBLD16F1713_16MHZ_INT_19200BD   6-9-2014  15:12:36         PAGE 20


SYMBOL TABLE
  LABEL                             VALUE 

LC2D2S0                           00000000
LC2D2S1                           00000001
LC2D2S2                           00000002
LC2D2S3                           00000003
LC2D2S4                           00000004
LC2D3S0                           00000000
LC2D3S1                           00000001
LC2D3S2                           00000002
LC2D3S3                           00000003
LC2D3S4                           00000004
LC2D4S0                           00000000
LC2D4S1                           00000001
LC2D4S2                           00000002
LC2D4S3                           00000003
LC2D4S4                           00000004
LC2EN                             00000007
LC2G1D1N                          00000000
LC2G1D1T                          00000001
LC2G1D2N                          00000002
LC2G1D2T                          00000003
LC2G1D3N                          00000004
LC2G1D3T                          00000005
LC2G1D4N                          00000006
LC2G1D4T                          00000007
LC2G1POL                          00000000
LC2G2D1N                          00000000
LC2G2D1T                          00000001
LC2G2D2N                          00000002
LC2G2D2T                          00000003
LC2G2D3N                          00000004
LC2G2D3T                          00000005
LC2G2D4N                          00000006
LC2G2D4T                          00000007
LC2G2POL                          00000001
LC2G3D1N                          00000000
LC2G3D1T                          00000001
LC2G3D2N                          00000002
LC2G3D2T                          00000003
LC2G3D3N                          00000004
LC2G3D3T                          00000005
LC2G3D4N                          00000006
LC2G3D4T                          00000007
LC2G3POL                          00000002
LC2G4D1N                          00000000
LC2G4D1T                          00000001
LC2G4D2N                          00000002
LC2G4D2T                          00000003
LC2G4D3N                          00000004
LC2G4D3T                          00000005
LC2G4D4N                          00000006
LC2G4D4T                          00000007
LC2G4POL                          00000003
LC2INTN                           00000003
MPASM 5.55  TINYBLD16F1713_16MHZ_INT_19200BD   6-9-2014  15:12:36         PAGE 21


SYMBOL TABLE
  LABEL                             VALUE 

LC2INTP                           00000004
LC2MODE0                          00000000
LC2MODE1                          00000001
LC2MODE2                          00000002
LC2OUT                            00000005
LC2POL                            00000007
LC3D1S0                           00000000
LC3D1S1                           00000001
LC3D1S2                           00000002
LC3D1S3                           00000003
LC3D1S4                           00000004
LC3D2S0                           00000000
LC3D2S1                           00000001
LC3D2S2                           00000002
LC3D2S3                           00000003
LC3D2S4                           00000004
LC3D3S0                           00000000
LC3D3S1                           00000001
LC3D3S2                           00000002
LC3D3S3                           00000003
LC3D3S4                           00000004
LC3D4S0                           00000000
LC3D4S1                           00000001
LC3D4S2                           00000002
LC3D4S3                           00000003
LC3D4S4                           00000004
LC3EN                             00000007
LC3G1D1N                          00000000
LC3G1D1T                          00000001
LC3G1D2N                          00000002
LC3G1D2T                          00000003
LC3G1D3N                          00000004
LC3G1POL                          00000000
LC3G2D1N                          00000000
LC3G2D1T                          00000001
LC3G2D2N                          00000002
LC3G2D2T                          00000003
LC3G2D3N                          00000004
LC3G2D3T                          00000005
LC3G2D4N                          00000006
LC3G2D4T                          00000007
LC3G2POL                          00000001
LC3G3D1N                          00000000
LC3G3D1T                          00000001
LC3G3D2N                          00000002
LC3G3D2T                          00000003
LC3G3D3N                          00000004
LC3G3D3T                          00000005
LC3G3D4N                          00000006
LC3G3D4T                          00000007
LC3G3POL                          00000002
LC3G4D1N                          00000000
LC3G4D1T                          00000001
MPASM 5.55  TINYBLD16F1713_16MHZ_INT_19200BD   6-9-2014  15:12:36         PAGE 22


SYMBOL TABLE
  LABEL                             VALUE 

LC3G4D2N                          00000002
LC3G4D2T                          00000003
LC3G4D3N                          00000004
LC3G4D3T                          00000005
LC3G4D4N                          00000006
LC3G4D4T                          00000007
LC3G4POL                          00000003
LC3INTN                           00000003
LC3INTP                           00000004
LC3MODE0                          00000000
LC3MODE1                          00000001
LC3MODE2                          00000002
LC3OUT                            00000005
LC3POL                            00000007
LC4D1S0                           00000000
LC4D1S1                           00000001
LC4D1S2                           00000002
LC4D1S3                           00000003
LC4D1S4                           00000004
LC4D2S0                           00000000
LC4D2S1                           00000001
LC4D2S2                           00000002
LC4D2S3                           00000003
LC4D2S4                           00000004
LC4D3S0                           00000000
LC4D3S1                           00000001
LC4D3S2                           00000002
LC4D3S3                           00000003
LC4D3S4                           00000004
LC4D4S0                           00000000
LC4D4S1                           00000001
LC4D4S2                           00000002
LC4D4S3                           00000003
LC4D4S4                           00000004
LC4D4S5                           00000005
LC4D4S6                           00000006
LC4D4S7                           00000007
LC4EN                             00000007
LC4G1D1N                          00000000
LC4G1D1T                          00000001
LC4G1D2N                          00000002
LC4G1D2T                          00000003
LC4G1D3N                          00000004
LC4G1D3T                          00000005
LC4G1D4N                          00000006
LC4G1D4T                          00000007
LC4G1POL                          00000000
LC4G2D1N                          00000000
LC4G2D1T                          00000001
LC4G2D2N                          00000002
LC4G2D2T                          00000003
LC4G2D3N                          00000004
LC4G2D3T                          00000005
MPASM 5.55  TINYBLD16F1713_16MHZ_INT_19200BD   6-9-2014  15:12:36         PAGE 23


SYMBOL TABLE
  LABEL                             VALUE 

LC4G2D4N                          00000006
LC4G2D4T                          00000007
LC4G2POL                          00000001
LC4G3D1N                          00000000
LC4G3D1T                          00000001
LC4G3D2N                          00000002
LC4G3D2T                          00000003
LC4G3D3N                          00000004
LC4G3D3T                          00000005
LC4G3D4N                          00000006
LC4G3D4T                          00000007
LC4G3POL                          00000002
LC4G4D1N                          00000000
LC4G4D1T                          00000001
LC4G4D2N                          00000002
LC4G4D2T                          00000003
LC4G4D3N                          00000004
LC4G4D3T                          00000005
LC4G4D4N                          00000006
LC4G4D4T                          00000007
LC4G4POL                          00000003
LC4INTN                           00000003
LC4INTP                           00000004
LC4MODE0                          00000000
LC4MODE1                          00000001
LC4MODE2                          00000002
LC4OUT                            00000005
LC4POL                            00000007
LFIOFR                            00000001
LWLO                              00000005
MC1OUT                            00000000
MC2OUT                            00000001
MCLC1OUT                          00000000
MCLC2OUT                          00000001
MCLC3OUT                          00000002
MCLC4OUT                          00000003
MFIOFR                            00000002
MLC1OUT                           00000000
MLC2OUT                           00000001
MLC3OUT                           00000002
MLC4OUT                           00000003
MODE0                             00000000
MODE1                             00000001
MODE2                             00000002
MSK0                              00000000
MSK1                              00000001
MSK2                              00000002
MSK3                              00000003
MSK4                              00000004
MSK5                              00000005
MSK6                              00000006
MSK7                              00000007
MainLoop                          00000FC5
MPASM 5.55  TINYBLD16F1713_16MHZ_INT_19200BD   6-9-2014  15:12:36         PAGE 24


SYMBOL TABLE
  LABEL                             VALUE 

N1CKS0                            00000000
N1CKS1                            00000001
N1EN                              00000007
N1OUT                             00000005
N1PFM                             00000000
N1POL                             00000004
N1PWS0                            00000005
N1PWS1                            00000006
N1PWS2                            00000007
NCO1ACC                           00000498
NCO1ACC0                          00000000
NCO1ACC1                          00000001
NCO1ACC10                         00000002
NCO1ACC11                         00000003
NCO1ACC12                         00000004
NCO1ACC13                         00000005
NCO1ACC14                         00000006
NCO1ACC15                         00000007
NCO1ACC16                         00000000
NCO1ACC17                         00000001
NCO1ACC18                         00000002
NCO1ACC19                         00000003
NCO1ACC2                          00000002
NCO1ACC3                          00000003
NCO1ACC4                          00000004
NCO1ACC5                          00000005
NCO1ACC6                          00000006
NCO1ACC7                          00000007
NCO1ACC8                          00000000
NCO1ACC9                          00000001
NCO1ACCH                          00000499
NCO1ACCL                          00000498
NCO1ACCU                          0000049A
NCO1CLK                           0000049F
NCO1CON                           0000049E
NCO1INC                           0000049B
NCO1INC0                          00000000
NCO1INC1                          00000001
NCO1INC10                         00000002
NCO1INC11                         00000003
NCO1INC12                         00000004
NCO1INC13                         00000005
NCO1INC14                         00000006
NCO1INC15                         00000007
NCO1INC16                         00000000
NCO1INC17                         00000001
NCO1INC18                         00000002
NCO1INC19                         00000003
NCO1INC2                          00000002
NCO1INC3                          00000003
NCO1INC4                          00000004
NCO1INC5                          00000005
NCO1INC6                          00000006
MPASM 5.55  TINYBLD16F1713_16MHZ_INT_19200BD   6-9-2014  15:12:36         PAGE 25


SYMBOL TABLE
  LABEL                             VALUE 

NCO1INC7                          00000007
NCO1INC8                          00000000
NCO1INC9                          00000001
NCO1INCH                          0000049C
NCO1INCL                          0000049B
NCO1INCU                          0000049D
NCOIE                             00000006
NCOIF                             00000006
NOT_BOR                           00000000
NOT_PD                            00000003
NOT_POR                           00000001
NOT_RI                            00000002
NOT_RMCLR                         00000003
NOT_RWDT                          00000004
NOT_T1SYNC                        00000002
NOT_TO                            00000004
NOT_WPUEN                         00000007
ODA0                              00000000
ODA1                              00000001
ODA2                              00000002
ODA3                              00000003
ODA4                              00000004
ODA5                              00000005
ODA6                              00000006
ODA7                              00000007
ODB0                              00000000
ODB1                              00000001
ODB2                              00000002
ODB3                              00000003
ODB4                              00000004
ODB5                              00000005
ODB6                              00000006
ODB7                              00000007
ODC0                              00000000
ODC1                              00000001
ODC2                              00000002
ODC3                              00000003
ODC4                              00000004
ODC5                              00000005
ODC6                              00000006
ODC7                              00000007
ODCONA                            0000028C
ODCONB                            0000028D
ODCONC                            0000028E
OERR                              00000001
OPA1CON                           00000511
OPA1EN                            00000007
OPA1PCH0                          00000000
OPA1PCH1                          00000001
OPA1SP                            00000006
OPA1UG                            00000004
OPA2CON                           00000515
OPA2EN                            00000007
MPASM 5.55  TINYBLD16F1713_16MHZ_INT_19200BD   6-9-2014  15:12:36         PAGE 26


SYMBOL TABLE
  LABEL                             VALUE 

OPA2PCH0                          00000000
OPA2PCH1                          00000001
OPA2SP                            00000006
OPA2UG                            00000004
OPTION_REG                        00000095
OSCCON                            00000099
OSCSTAT                           0000009A
OSCTUNE                           00000098
OSFIE                             00000007
OSFIF                             00000007
OSTS                              00000005
OUT                               00000005
P                                 00000004
P3TSEL0                           00000004
P3TSEL1                           00000005
P4TSEL0                           00000006
P4TSEL1                           00000007
PCIE                              00000006
PCL                               00000002
PCLATH                            0000000A
PCLATH_SHAD                       00000FE7
PCON                              00000096
PEIE                              00000006
PEN                               00000002
PIE1                              00000091
PIE2                              00000092
PIE3                              00000093
PIR1                              00000011
PIR2                              00000012
PIR3                              00000013
PLLR                              00000006
PMADR                             00000191
PMADRH                            00000192
PMADRL                            00000191
PMCON1                            00000195
PMCON2                            00000196
PMDAT                             00000193
PMDATH                            00000194
PMDATL                            00000193
POL                               00000007
PORTA                             0000000C
PORTB                             0000000D
PORTC                             0000000E
PORTE                             00000010
PPSLOCK                           00000E0F
PPSLOCKED                         00000000
PR2                               0000001B
PR4                               00000416
PR6                               0000041D
PS0                               00000000
PS1                               00000001
PS2                               00000002
PSA                               00000003
MPASM 5.55  TINYBLD16F1713_16MHZ_INT_19200BD   6-9-2014  15:12:36         PAGE 27


SYMBOL TABLE
  LABEL                             VALUE 

PWM3CON                           00000619
PWM3CON0                          00000619
PWM3DCH                           00000618
PWM3DCH0                          00000000
PWM3DCH1                          00000001
PWM3DCH2                          00000002
PWM3DCH3                          00000003
PWM3DCH4                          00000004
PWM3DCH5                          00000005
PWM3DCH6                          00000006
PWM3DCH7                          00000007
PWM3DCL                           00000617
PWM3DCL0                          00000006
PWM3DCL1                          00000007
PWM3EN                            00000007
PWM3OUT                           00000005
PWM3POL                           00000004
PWM4CON                           0000061C
PWM4CON0                          0000061C
PWM4DCH                           0000061B
PWM4DCH0                          00000000
PWM4DCH1                          00000001
PWM4DCH2                          00000002
PWM4DCH3                          00000003
PWM4DCH4                          00000004
PWM4DCH5                          00000005
PWM4DCH6                          00000006
PWM4DCH7                          00000007
PWM4DCL                           0000061A
PWM4DCL0                          00000006
PWM4DCL1                          00000007
PWM4EN                            00000007
PWM4OUT                           00000005
PWM4POL                           00000004
RA0                               00000000
RA0PPS                            00000E90
RA1                               00000001
RA1PPS                            00000E91
RA2                               00000002
RA2PPS                            00000E92
RA3                               00000003
RA3PPS                            00000E93
RA4                               00000004
RA4PPS                            00000E94
RA5                               00000005
RA5PPS                            00000E95
RA6                               00000006
RA6PPS                            00000E96
RA7                               00000007
RA7PPS                            00000E97
RB0                               00000000
RB0PPS                            00000E98
RB1                               00000001
MPASM 5.55  TINYBLD16F1713_16MHZ_INT_19200BD   6-9-2014  15:12:36         PAGE 28


SYMBOL TABLE
  LABEL                             VALUE 

RB1PPS                            00000E99
RB2                               00000002
RB2PPS                            00000E9A
RB3                               00000003
RB3PPS                            00000E9B
RB4                               00000004
RB4PPS                            00000E9C
RB5                               00000005
RB5PPS                            00000E9D
RB6                               00000006
RB6PPS                            00000E9E
RB7                               00000007
RB7PPS                            00000E9F
RC0                               00000000
RC0PPS                            00000EA0
RC1                               00000001
RC1PPS                            00000EA1
RC1REG                            00000199
RC1STA                            0000019D
RC2                               00000002
RC2PPS                            00000EA2
RC3                               00000003
RC3PPS                            00000EA3
RC4                               00000004
RC4PPS                            00000EA4
RC5                               00000005
RC5PPS                            00000EA5
RC6                               00000006
RC6PPS                            00000EA6
RC7                               00000007
RC7PPS                            00000EA7
RCEN                              00000003
RCIDL                             00000006
RCIE                              00000005
RCIF                              00000005
RCREG                             00000199
RCREG1                            00000199
RCSTA                             0000019D
RCSTA1                            0000019D
RD                                00000000
RE3                               00000003
RSEN                              00000001
RX9                               00000006
RX9D                              00000000
RXPPS                             00000E24
R_NOT_W                           00000002
Receive                           00000FE0
Reserved                          00000000
Round                             
RoundResult                       00004B1F
S                                 00000003
SBCDE                             00000002
SBOREN                            00000007
MPASM 5.55  TINYBLD16F1713_16MHZ_INT_19200BD   6-9-2014  15:12:36         PAGE 29


SYMBOL TABLE
  LABEL                             VALUE 

SCIE                              00000005
SCKP                              00000004
SCS0                              00000000
SCS1                              00000001
SDAHT                             00000003
SEN                               00000000
SENDB                             00000003
SLRA0                             00000000
SLRA1                             00000001
SLRA2                             00000002
SLRA3                             00000003
SLRA4                             00000004
SLRA5                             00000005
SLRA6                             00000006
SLRA7                             00000007
SLRB0                             00000000
SLRB1                             00000001
SLRB2                             00000002
SLRB3                             00000003
SLRB4                             00000004
SLRB5                             00000005
SLRB6                             00000006
SLRB7                             00000007
SLRC0                             00000000
SLRC1                             00000001
SLRC2                             00000002
SLRC3                             00000003
SLRC4                             00000004
SLRC5                             00000005
SLRC6                             00000006
SLRC7                             00000007
SLRCONA                           0000030C
SLRCONB                           0000030D
SLRCONC                           0000030E
SMP                               00000007
SOSCR                             00000007
SP1BRG                            0000019B
SP1BRGH                           0000019C
SP1BRGL                           0000019B
SPBRG                             0000019B
SPBRG1                            0000019B
SPBRGH                            0000019C
SPBRGH1                           0000019C
SPBRGL                            0000019B
SPEN                              00000007
SPLLEN                            00000007
SREN                              00000005
SSP1ADD                           00000212
SSP1ADD0                          00000000
SSP1ADD1                          00000001
SSP1ADD2                          00000002
SSP1ADD3                          00000003
SSP1ADD4                          00000004
MPASM 5.55  TINYBLD16F1713_16MHZ_INT_19200BD   6-9-2014  15:12:36         PAGE 30


SYMBOL TABLE
  LABEL                             VALUE 

SSP1ADD5                          00000005
SSP1ADD6                          00000006
SSP1ADD7                          00000007
SSP1BUF                           00000211
SSP1BUF0                          00000000
SSP1BUF1                          00000001
SSP1BUF2                          00000002
SSP1BUF3                          00000003
SSP1BUF4                          00000004
SSP1BUF5                          00000005
SSP1BUF6                          00000006
SSP1BUF7                          00000007
SSP1CON                           00000215
SSP1CON1                          00000215
SSP1CON2                          00000216
SSP1CON3                          00000217
SSP1IE                            00000003
SSP1IF                            00000003
SSP1MSK                           00000213
SSP1MSK0                          00000000
SSP1MSK1                          00000001
SSP1MSK2                          00000002
SSP1MSK3                          00000003
SSP1MSK4                          00000004
SSP1MSK5                          00000005
SSP1MSK6                          00000006
SSP1MSK7                          00000007
SSP1STAT                          00000214
SSPADD                            00000212
SSPBUF                            00000211
SSPCLKPPS                         00000E20
SSPCON                            00000215
SSPCON1                           00000215
SSPCON2                           00000216
SSPCON3                           00000217
SSPDATPPS                         00000E21
SSPEN                             00000005
SSPM0                             00000000
SSPM1                             00000001
SSPM2                             00000002
SSPM3                             00000003
SSPMSK                            00000213
SSPOV                             00000006
SSPSSPPS                          00000E22
SSPSTAT                           00000214
STATUS                            00000003
STATUS_SHAD                       00000FE4
STKOVF                            00000007
STKPTR                            00000FED
STKUNF                            00000006
SWDTEN                            00000000
SYNC                              00000004
T0CKIPPS                          00000E11
MPASM 5.55  TINYBLD16F1713_16MHZ_INT_19200BD   6-9-2014  15:12:36         PAGE 31


SYMBOL TABLE
  LABEL                             VALUE 

T0CS                              00000005
T0IE                              00000005
T0IF                              00000002
T0SE                              00000004
T1CKIPPS                          00000E12
T1CKPS0                           00000004
T1CKPS1                           00000005
T1CON                             00000018
T1GCON                            00000019
T1GGO_NOT_DONE                    00000003
T1GPOL                            00000006
T1GPPS                            00000E13
T1GSPM                            00000004
T1GSS0                            00000000
T1GSS1                            00000001
T1GTM                             00000005
T1GVAL                            00000002
T1OSCEN                           00000003
T2CKPS0                           00000000
T2CKPS1                           00000001
T2CON                             0000001C
T2OUTPS0                          00000003
T2OUTPS1                          00000004
T2OUTPS2                          00000005
T2OUTPS3                          00000006
T4CKPS0                           00000000
T4CKPS1                           00000001
T4CON                             00000417
T4OUTPS0                          00000003
T4OUTPS1                          00000004
T4OUTPS2                          00000005
T4OUTPS3                          00000006
T6CKPS0                           00000000
T6CKPS1                           00000001
T6CON                             0000041E
T6OUTPS0                          00000003
T6OUTPS1                          00000004
T6OUTPS2                          00000005
T6OUTPS3                          00000006
TMR0                              00000015
TMR0CS                            00000005
TMR0IE                            00000005
TMR0IF                            00000002
TMR0SE                            00000004
TMR1                              00000016
TMR1CS0                           00000006
TMR1CS1                           00000007
TMR1GE                            00000007
TMR1GIE                           00000007
TMR1GIF                           00000007
TMR1H                             00000017
TMR1IE                            00000000
TMR1IF                            00000000
MPASM 5.55  TINYBLD16F1713_16MHZ_INT_19200BD   6-9-2014  15:12:36         PAGE 32


SYMBOL TABLE
  LABEL                             VALUE 

TMR1L                             00000016
TMR1ON                            00000000
TMR2                              0000001A
TMR2IE                            00000001
TMR2IF                            00000001
TMR2ON                            00000002
TMR4                              00000415
TMR4IE                            00000001
TMR4IF                            00000001
TMR4ON                            00000002
TMR6                              0000041C
TMR6IE                            00000002
TMR6IF                            00000002
TMR6ON                            00000002
TOSH                              00000FEF
TOSL                              00000FEE
TRIGSEL0                          00000004
TRIGSEL1                          00000005
TRIGSEL2                          00000006
TRIGSEL3                          00000007
TRISA                             0000008C
TRISA0                            00000000
TRISA1                            00000001
TRISA2                            00000002
TRISA3                            00000003
TRISA4                            00000004
TRISA5                            00000005
TRISA6                            00000006
TRISA7                            00000007
TRISB                             0000008D
TRISB0                            00000000
TRISB1                            00000001
TRISB2                            00000002
TRISB3                            00000003
TRISB4                            00000004
TRISB5                            00000005
TRISB6                            00000006
TRISB7                            00000007
TRISC                             0000008E
TRISC0                            00000000
TRISC1                            00000001
TRISC2                            00000002
TRISC3                            00000003
TRISC4                            00000004
TRISC5                            00000005
TRISC6                            00000006
TRISC7                            00000007
TRISE                             00000090
TRISE3                            00000003
TRMT                              00000001
TSEN                              00000005
TSRNG                             00000004
TUN0                              00000000
MPASM 5.55  TINYBLD16F1713_16MHZ_INT_19200BD   6-9-2014  15:12:36         PAGE 33


SYMBOL TABLE
  LABEL                             VALUE 

TUN1                              00000001
TUN2                              00000002
TUN3                              00000003
TUN4                              00000004
TUN5                              00000005
TX1REG                            0000019A
TX1STA                            0000019E
TX9                               00000006
TX9D                              00000000
TXEN                              00000005
TXIE                              00000004
TXIF                              00000004
TXREG                             0000019A
TXREG1                            0000019A
TXSTA                             0000019E
TXSTA1                            0000019E
UA                                00000001
VREGCON                           00000197
VREGPM                            00000001
W                                 00000000
WCOL                              00000007
WDTCON                            00000097
WDTPS0                            00000001
WDTPS1                            00000002
WDTPS2                            00000003
WDTPS3                            00000004
WDTPS4                            00000005
WPUA                              0000020C
WPUA0                             00000000
WPUA1                             00000001
WPUA2                             00000002
WPUA3                             00000003
WPUA4                             00000004
WPUA5                             00000005
WPUA6                             00000006
WPUA7                             00000007
WPUB                              0000020D
WPUB0                             00000000
WPUB1                             00000001
WPUB2                             00000002
WPUB3                             00000003
WPUB4                             00000004
WPUB5                             00000005
WPUB6                             00000006
WPUB7                             00000007
WPUC                              0000020E
WPUC0                             00000000
WPUC1                             00000001
WPUC2                             00000002
WPUC3                             00000003
WPUC4                             00000004
WPUC5                             00000005
WPUC6                             00000006
MPASM 5.55  TINYBLD16F1713_16MHZ_INT_19200BD   6-9-2014  15:12:36         PAGE 34


SYMBOL TABLE
  LABEL                             VALUE 

WPUC7                             00000007
WPUE                              00000210
WPUE3                             00000003
WR                                00000001
WREG                              00000009
WREG_SHAD                         00000FE5
WREN                              00000002
WRERR                             00000003
WUE                               00000001
Z                                 00000002
ZCD1CON                           0000011C
ZCD1EN                            00000007
ZCD1INTN                          00000000
ZCD1INTP                          00000001
ZCD1OUT                           00000005
ZCD1POL                           00000004
ZCDIE                             00000004
ZCDIF                             00000004
Z_SHAD                            00000002
_BOREN_NSLEEP                     0000FDFF
_BOREN_OFF                        0000F9FF
_BOREN_ON                         0000FFFF
_BOREN_SBODEN                     0000FBFF
_BORV_HI                          0000FBFF
_BORV_LO                          0000FFFF
_CLKOUTEN_OFF                     0000FFFF
_CLKOUTEN_ON                      0000F7FF
_CONFIG1                          00008007
_CONFIG2                          00008008
_CP_OFF                           0000FFFF
_CP_ON                            0000FF7F
_DEVID1                           00008006
_FCMEN_OFF                        0000DFFF
_FCMEN_ON                         0000FFFF
_FOSC_ECH                         0000FFFF
_FOSC_ECL                         0000FFFD
_FOSC_ECM                         0000FFFE
_FOSC_EXTRC                       0000FFFB
_FOSC_HS                          0000FFFA
_FOSC_INTOSC                      0000FFFC
_FOSC_LP                          0000FFF8
_FOSC_XT                          0000FFF9
_IDLOC0                           00008000
_IDLOC1                           00008001
_IDLOC2                           00008002
_IDLOC3                           00008003
_IESO_OFF                         0000EFFF
_IESO_ON                          0000FFFF
_LPBOR_OFF                        0000FFFF
_LPBOR_ON                         0000F7FF
_LVP_OFF                          0000DFFF
_LVP_ON                           0000FFFF
_MCLRE_OFF                        0000FFBF
MPASM 5.55  TINYBLD16F1713_16MHZ_INT_19200BD   6-9-2014  15:12:36         PAGE 35


SYMBOL TABLE
  LABEL                             VALUE 

_MCLRE_ON                         0000FFFF
_PLLEN_OFF                        0000FEFF
_PLLEN_ON                         0000FFFF
_PPS1WAY_OFF                      0000FFFB
_PPS1WAY_ON                       0000FFFF
_PWRTE_OFF                        0000FFFF
_PWRTE_ON                         0000FFDF
_STVREN_OFF                       0000FDFF
_STVREN_ON                        0000FFFF
_WDTE_NSLEEP                      0000FFF7
_WDTE_OFF                         0000FFE7
_WDTE_ON                          0000FFFF
_WDTE_SWDTEN                      0000FFEF
_WRT_ALL                          0000FFFC
_WRT_BOOT                         0000FFFE
_WRT_HALF                         0000FFFD
_WRT_OFF                          0000FFFF
_ZCDDIS_OFF                       0000FF7F
_ZCDDIS_ON                        0000FFFF
__16F1713                         00000001
baud                              00004B00
baud_real                         00004B1F
change_RX                         00000001
cnt1                              0000007D
cnt2                              0000007E
cnt3                              0000007F
crc                               0000007B
errpercent                        00000000
first_address                     max_flash-100
i                                 0000007C
mainl                             00000FC6
max_flash                         0x1000
rcvoct                            00000FCE
rpt2                              00000FE2
rpt3                              00000FE3
rptc                              00000FE4
rxPPS                             00000000
spbrg_value                       00000033
txPPS                             00000001
way_to_exit                       00000FEF
wr_e                              00000FF4
wr_w                              00000FF5
xtal                              00F42400
ziieroare                         00000FD9
MPASM 5.55  TINYBLD16F1713_16MHZ_INT_19200BD   6-9-2014  15:12:36         PAGE 36


MEMORY USAGE MAP ('X' = Used,  '-' = Unused)


0000 : X--------------- ---------------- ---------------- ----------------
0F80 : ---------------- ---------------- XXXXXXXXXXXXXXXX XXXXXXXXXXXXXXXX
0FC0 : XXXXXXXXXXXXXXXX XXXXXXXXXXXXXXXX XXXXXXXXXXXXXXXX XXXXXXXXXXXXXX--
8000 : -------XX------- ---------------- ---------------- ----------------

All other memory blocks unused.

Program Memory Words Used:    97
Program Memory Words Free:  3999


Errors   :     0
Warnings :     0 reported,     0 suppressed
Messages :     2 reported,    31 suppressed

