MSP430 Evaluation Assembler PC v3.3.3 Sat Aug 02 11:19:27 2014

Tools Copyright (c) 2003-2010 Texas Instruments Incorporated
../msp430g2452.asm                                                   PAGE    1

       1                    ; change these lines accordingly to your application
       2                            .cdecls C,LIST,"msp430.h"
 A     1            ; ------------------------------------------
 A     2            ; Assembly Generated from C/C++ Source Code
 A     3            ; ------------------------------------------
 A     4            
 A     5            ; =========== MACRO DEFINITIONS ===========
 A     6            ; ASM HEADER WARNING - function-like macro 'SFR_8BIT(address)' not supported
 A     7            ; ASM HEADER WARNING - function-like macro 'SFR_16BIT(address)' not supported
 A     8            ; ASM HEADER WARNING - function-like macro 'VECTOR_NAME(name)' not supported
 A     9            ; ASM HEADER WARNING - function-like macro 'EMIT_PRAGMA(x)' not supported
 A    10            ; ASM HEADER WARNING - function-like macro 'CREATE_VECTOR(name)' not supported
 A    11            ; ASM HEADER WARNING - function-like macro 'PLACE_VECTOR(vector,section)' not supported
 A    12            ; ASM HEADER WARNING - function-like macro 'ISR_VECTOR(func,offset)' not supported
 A    13                       .define "(0x0800)",SCS 
 A    14                       .define "1",_OPTIMIZE_FOR_SPACE 
 A    15                       .define "(0x02)",USIOE 
 A    16                       .define "(0x08)",RSTIFG 
 A    17                       .define "(0x04)",CAIES 
 A    18                       .define "(0x40)",XT2S0 
 A    19                       .define "(0x80)",XT2S1 
 A    20                       .define "1",__ASM_HEADER__ 
 A    21                       .define "(0x01)",CAIFG 
 A    22                       .define "(0x9600)",FRKEY 
 A    23                       .define "TA0R_",TAR_ 
 A    24                       .define "(0x1000)",INCH0 
 A    25                       .define "(0x2000)",INCH1 
 A    26                       .define """.int09""",TIMER0_A0_VECTOR 
 A    27                       .define "(0x0010)",CCIE 
 A    28                       .define "(0x4000)",INCH2 
 A    29                       .define "(0x20)",USISTTIE 
 A    30                       .define "1",__MSP430__ 
 A    31                       .define "(0x8000)",INCH3 
 A    32                       .define "(0x0010)",WDTTMSEL 
 A    33                       .define "(0x20)",DCO0 
 A    34                       .define "(0x40)",DCO1 
 A    35                       .define "(0x80)",DCO2 
 A    36                       .define "TA0CTL_",TACTL_ 
 A    37                       .define "(0x0040)",ID0 
 A    38                       .define "(0x80)",USICKPH 
 A    39                       .define "(0x02)",CAF 
 A    40                       .define "(0x0080)",ID1 
 A    41                       .define "(0x00)",USISSEL_0 
 A    42                       .define "(0x02)",CAIE 
 A    43                       .define "(0x04)",USISSEL_1 
 A    44                       .define "(0x08)",USISSEL_2 
 A    45                       .define "(0*0x1000u)",INCH_0 
 A    46                       .define "(0x02)",USICKPL 
 A    47                       .define "(0x0C)",USISSEL_3 
 A    48                       .define "(1*0x1000u)",INCH_1 
 A    49                       .define "(0x10)",USISSEL_4 
 A    50                       .define "(0x0080)",BLKWRT 
 A    51                       .define "(2*0x1000u)",INCH_2 
 A    52                       .define "(0x14)",USISSEL_5 
 A    53                       .define "(0x01)",USISWRST 
MSP430 Evaluation Assembler PC v3.3.3 Sat Aug 02 11:19:27 2014

Tools Copyright (c) 2003-2010 Texas Instruments Incorporated
../msp430g2452.asm                                                   PAGE    2

 A    54                       .define "1",__edg_front_end__ 
 A    55                       .define "(3*0x1000u)",INCH_3 
 A    56                       .define "(0x18)",USISSEL_6 
 A    57                       .define "(4*0x1000u)",INCH_4 
 A    58                       .define "(0x1C)",USISSEL_7 
 A    59                       .define "(5*0x1000u)",INCH_5 
 A    60                       .define "(6*0x1000u)",INCH_6 
 A    61                       .define "(0x0100)",CAP 
 A    62                       .define "(7*0x1000u)",INCH_7 
 A    63                       .define "(8*0x1000u)",INCH_8 
 A    64                       .define "(WDTPW+WDTTMSEL+WDTCNTCL+WDTSSEL+WDTIS0)",WDT_ADLY_250 
 A    65                       .define "(9*0x1000u)",INCH_9 
 A    66                       .define "(0x1000)",CCIS0 
 A    67                       .define "1",__NO_LONG_LONG 
 A    68                       .define "(0x2000)",CCIS1 
 A    69                       .define "(0x800)",ADC10SHT0 
 A    70                       .define "(0x40)",USI16B 
 A    71                       .define "3003003",__COMPILER_VERSION__ 
 A    72                       .define "(0x1000)",ADC10SHT1 
 A    73                       .define "(10*0x1000u)",INCH_10 
 A    74                       .define "(11*0x1000u)",INCH_11 
 A    75                       .define "(0x0008)",CCI 
 A    76                       .define "(12*0x1000u)",INCH_12 
 A    77                       .define "(0x0020)",ADC10DIV0 
 A    78                       .define "(13*0x1000u)",INCH_13 
 A    79                       .define "(0x0040)",ADC10DIV1 
 A    80                       .define "(14*0x1000u)",INCH_14 
 A    81                       .define "(0x020)",REFON 
 A    82                       .define "0",__TI_STRICT_ANSI_MODE__ 
 A    83                       .define "(0x0080)",ADC10DIV2 
 A    84                       .define "(15*0x1000u)",INCH_15 
 A    85                       .define "(0x0001)",C 
 A    86                       .define """11:19:27""",__TIME__ 
 A    87                       .define "(0x0010)",CPUOFF 
 A    88                       .define "(0x5A00)",WDTPW 
 A    89                       .define "(0x10)",NMIIE 
 A    90                       .define "(0x0004)",N 
 A    91                       .define "(0x008)",ADC10IE 
 A    92                       .define "(0x0100)",V 
 A    93                       .define "(WDTPW+WDTTMSEL+WDTCNTCL+WDTSSEL)",WDT_ADLY_1000 
 A    94                       .define "(0x10)",LFXT1S0 
 A    95                       .define "(0x00)",LFXT1S_0 
 A    96                       .define "(0x20)",LFXT1S1 
 A    97                       .define "(0x10)",LFXT1S_1 
 A    98                       .define "(0x80)",CASHORT 
 A    99                       .define "(0x20)",LFXT1S_2 
 A   100                       .define "(0*0x2000u)",SREF_0 
 A   101                       .define "(0x0002)",Z 
 A   102                       .define "(0x30)",LFXT1S_3 
 A   103                       .define "(1*0x2000u)",SREF_1 
 A   104                       .define "(2*0x2000u)",SREF_2 
 A   105                       .define "(3*0x2000u)",SREF_3 
 A   106                       .define "(4*0x2000u)",SREF_4 
 A   107                       .define "(5*0x2000u)",SREF_5 
 A   108                       .define "(0x80)",XT2OFF 
MSP430 Evaluation Assembler PC v3.3.3 Sat Aug 02 11:19:27 2014

Tools Copyright (c) 2003-2010 Texas Instruments Incorporated
../msp430g2452.asm                                                   PAGE    3

 A   109                       .define "(6*0x2000u)",SREF_6 
 A   110                       .define "(7*0x2000u)",SREF_7 
 A   111                       .define "unsigned",__SIZE_T_TYPE__ 
 A   112                       .define "(0x3300)",FXKEY 
 A   113                       .define "(0x0008)",WDTCNTCL 
 A   114                       .define "1",__MSP430G2452__ 
 A   115                       .define "(0x04)",P2CA0 
 A   116                       .define "(0x08)",P2CA1 
 A   117                       .define "int",__PTRDIFF_T_TYPE__ 
 A   118                       .define "(0x10)",P2CA2 
 A   119                       .define "(0x20)",P2CA3 
 A   120                       .define "(0x40)",P2CA4 
 A   121                       .define """.int14""",NMI_VECTOR 
 A   122                       .define "(0*0x1000u)",CCIS_0 
 A   123                       .define "(1*0x1000u)",CCIS_1 
 A   124                       .define "(WDTPW+WDTTMSEL+WDTCNTCL+WDTIS1+WDTIS0)",WDT_MDLY_0_064 
 A   125                       .define "(2*0x1000u)",CCIS_2 
 A   126                       .define "(3*0x1000u)",CCIS_3 
 A   127                       .define "1",__msp430 
 A   128                       .define "(0x004)",ADC10CT 
 A   129                       .define "(0x0200)",ADC10DF 
 A   130                       .define "(0x20)",USIDIV0 
 A   131                       .define "(0x40)",USIDIV1 
 A   132                       .define "(0x08)",CAON 
 A   133                       .define "(0x80)",USIDIV2 
 A   134                       .define "(0x0008)",GIE 
 A   135                       .define "(CPUOFF)",LPM0 
 A   136                       .define "(SCG0+CPUOFF)",LPM1 
 A   137                       .define "(0x000)",ADC10DISABLE 
 A   138                       .define "(SCG1+CPUOFF)",LPM2 
 A   139                       .define "(0x10)",USILSB 
 A   140                       .define "(0x10)",DIVM0 
 A   141                       .define "(SCG1+SCG0+CPUOFF)",LPM3 
 A   142                       .define "(0x20)",DIVM1 
 A   143                       .define "(SCG1+SCG0+OSCOFF+CPUOFF)",LPM4 
 A   144                       .define "TACCR0",CCR0 
 A   145                       .define "(0x01)",LFXT1OF 
 A   146                       .define "TACCR1",CCR1 
 A   147                       .define "1",__MSP430_HAS_PORT2_R__ 
 A   148                       .define "(0*0x800u)",ADC10SHT_0 
 A   149                       .define "TACCR2",CCR2 
 A   150                       .define "(WDTPW+WDTTMSEL+WDTCNTCL+WDTIS0)",WDT_MDLY_8 
 A   151                       .define "(1*0x800u)",ADC10SHT_1 
 A   152                       .define "(2*0x800u)",ADC10SHT_2 
 A   153                       .define "(3*0x800u)",ADC10SHT_3 
 A   154                       .define "(0*0x10u)",MC_0 
 A   155                       .define "(0x2000)",SREF0 
 A   156                       .define "(1*0x10u)",MC_1 
 A   157                       .define "(0x4000)",SREF1 
 A   158                       .define "(2*0x10u)",MC_2 
 A   159                       .define "(0x8000)",SREF2 
 A   160                       .define "(0x01)",WDTIFG 
 A   161                       .define "TACCTL0",CCTL0 
 A   162                       .define "(3*0x10u)",MC_3 
 A   163                       .define "TACCTL1",CCTL1 
MSP430 Evaluation Assembler PC v3.3.3 Sat Aug 02 11:19:27 2014

Tools Copyright (c) 2003-2010 Texas Instruments Incorporated
../msp430g2452.asm                                                   PAGE    4

 A   164                       .define "TACCTL2",CCTL2 
 A   165                       .define "(WDTPW+WDTCNTCL+WDTSSEL)",WDT_ARST_1000 
 A   166                       .define "(0x001)",ADC10FETCH 
 A   167                       .define "(WDTPW+WDTCNTCL+WDTIS1+WDTIS0)",WDT_MRST_0_064 
 A   168                       .define "(0x0001)",ADC10BUSY 
 A   169                       .define "(0x10)",NMIIFG 
 A   170                       .define "(0*0x400u)",SHS_0 
 A   171                       .define "(0x0008)",WAIT 
 A   172                       .define "(1*0x400u)",SHS_1 
 A   173                       .define "(0*0x20u)",ADC10DIV_0 
 A   174                       .define "(2*0x400u)",SHS_2 
 A   175                       .define "(1*0x20u)",ADC10DIV_1 
 A   176                       .define "(3*0x400u)",SHS_3 
 A   177                       .define "(2*0x20u)",ADC10DIV_2 
 A   178                       .define "(3*0x20u)",ADC10DIV_3 
 A   179                       .define "(4*0x20u)",ADC10DIV_4 
 A   180                       .define "(0x100)",REFBURST 
 A   181                       .define "(WDTPW+WDTCNTCL+WDTSSEL+WDTIS1)",WDT_ARST_16 
 A   182                       .define "(5*0x20u)",ADC10DIV_5 
 A   183                       .define "(6*0x20u)",ADC10DIV_6 
 A   184                       .define "(0*0x40u)",ID_0 
 A   185                       .define "(7*0x20u)",ADC10DIV_7 
 A   186                       .define "(1*0x40u)",ID_1 
 A   187                       .define "(2*0x40u)",ID_2 
 A   188                       .define "(0xA500)",FWKEY 
 A   189                       .define "(3*0x40u)",ID_3 
 A   190                       .define "(0x200)",REFOUT 
 A   191                       .define "(0x0040)",WDTNMIES 
 A   192                       .define "(0x01)",MOD0 
 A   193                       .define "(0x02)",MOD1 
 A   194                       .define "(0x01)",CAPD0 
 A   195                       .define "(0x04)",MOD2 
 A   196                       .define "(0x02)",CAPD1 
 A   197                       .define "(0x08)",MOD3 
 A   198                       .define "(0x0001)",BUSY 
 A   199                       .define "(0x04)",CAPD2 
 A   200                       .define "(0x10)",MOD4 
 A   201                       .define "TA0CCTL0",TACCTL0 
 A   202                       .define "(0x08)",CAPD3 
 A   203                       .define "TA0CCTL1",TACCTL1 
 A   204                       .define "(0x10)",CAPD4 
 A   205                       .define "TA0CCTL2",TACCTL2 
 A   206                       .define "(WDTPW+WDTCNTCL)",WDT_MRST_32 
 A   207                       .define "(0x20)",CAPD5 
 A   208                       .define "(0x40)",CAPD6 
 A   209                       .define """.int08""",TIMER0_A1_VECTOR 
 A   210                       .define "(0x80)",CAPD7 
 A   211                       .define "(0x4000)",CM0 
 A   212                       .define "(0x0020)",OUTMOD0 
 A   213                       .define "(0x8000)",CM1 
 A   214                       .define "(0x0040)",OUTMOD1 
 A   215                       .define "(0x0100)",ISSH 
 A   216                       .define "(0x0080)",OUTMOD2 
 A   217                       .define "(0x0040)",LOCKA 
 A   218                       .define "(0x00)",SELM_0 
MSP430 Evaluation Assembler PC v3.3.3 Sat Aug 02 11:19:27 2014

Tools Copyright (c) 2003-2010 Texas Instruments Incorporated
../msp430g2452.asm                                                   PAGE    5

 A   219                       .define "(0x40)",SELM_1 
 A   220                       .define "(0x80)",SELM_2 
 A   221                       .define "(0xC0)",SELM_3 
 A   222                       .define "(WDTPW+WDTTMSEL+WDTCNTCL+WDTSSEL+WDTIS1)",WDT_ADLY_16 
 A   223                       .define "(0x0002)",CONSEQ0 
 A   224                       .define "(0x0004)",CONSEQ1 
 A   225                       .define "(0x01)",USIIFG 
 A   226                       .define "(0x0100)",TASSEL0 
 A   227                       .define "(0x0200)",TASSEL1 
 A   228                       .define "1",__STDC__ 
 A   229                       .define """.int04""",USI_VECTOR 
 A   230                       .define """.int02""",PORT1_VECTOR 
 A   231                       .define "(0x0001)",BIT0 
 A   232                       .define "(0x0002)",BIT1 
 A   233                       .define "(0x0004)",BIT2 
 A   234                       .define "(0x0008)",BIT3 
 A   235                       .define "(0x0010)",BIT4 
 A   236                       .define "(0x002)",ENC 
 A   237                       .define "TA0R",TAR   
 A   238                       .define "(0x0040)",WRT 
 A   239                       .define "(0x0020)",BIT5 
 A   240                       .define "(0x0040)",BIT6 
 A   241                       .define "(0x0006)",TA0IV_6 
 A   242                       .define "(0x02)",USISTTIFG 
 A   243                       .define "(0x0080)",BIT7 
 A   244                       .define "(0x0100)",BIT8 
 A   245                       .define "(0x0008)",TA0IV_8 
 A   246                       .define "(WDTPW+WDTTMSEL+WDTCNTCL)",WDT_MDLY_32 
 A   247                       .define "(0x0200)",BIT9 
 A   248                       .define "(0x0002)",KEYV 
 A   249                       .define "(0x0001)",TAIFG 
 A   250                       .define "(WDTPW+WDTCNTCL+WDTIS1)",WDT_MRST_0_5 
 A   251                       .define "(0x000A)",TA0IV_TAIFG 
 A   252                       .define "(0x0020)",OSCOFF 
 A   253                       .define "(0x0400)",BITA 
 A   254                       .define "(0x02)",DIVS0 
 A   255                       .define "(0x0800)",BITB 
 A   256                       .define "(0x04)",DIVS1 
 A   257                       .define "(0x1000)",BITC 
 A   258                       .define "(0x2000)",BITD 
 A   259                       .define "(0x001)",ADC10SC 
 A   260                       .define "(0x4000)",BITE 
 A   261                       .define "(0x01)",CAOUT 
 A   262                       .define "(0x8000)",BITF 
 A   263                       .define "3003003",__TI_COMPILER_VERSION__ 
 A   264                       .define "1",__MSP430_HAS_PORT1_R__ 
 A   265                       .define """.int10""",WDT_VECTOR 
 A   266                       .define "1",__MSP430_HAS_TA3__ 
 A   267                       .define "(0x0002)",COV 
 A   268                       .define "(0x080)",MSC 
 A   269                       .define "(0x0010)",LOCK 
 A   270                       .define "1",__unsigned_chars__ 
 A   271                       .define "(WDTPW+WDTCNTCL+WDTSSEL+WDTIS1+WDTIS0)",WDT_ARST_1_9 
 A   272                       .define "(0x01)",USICNT0 
 A   273                       .define "(0x02)",USICNT1 
MSP430 Evaluation Assembler PC v3.3.3 Sat Aug 02 11:19:27 2014

Tools Copyright (c) 2003-2010 Texas Instruments Incorporated
../msp430g2452.asm                                                   PAGE    6

 A   274                       .define "TACCR0_",CCR0_ 
 A   275                       .define "(0x04)",USICNT2 
 A   276                       .define "(0x08)",USICNT3 
 A   277                       .define "(0x01)",RSEL0 
 A   278                       .define "(0x10)",USICNT4 
 A   279                       .define "(0x02)",RSEL1 
 A   280                       .define "(0x0400)",SHS0 
 A   281                       .define "(0x04)",RSEL2 
 A   282                       .define "(0x0800)",SHS1 
 A   283                       .define "(0x0002)",TA0IV_TACCR1 
 A   284                       .define "(0x08)",RSEL3 
 A   285                       .define "(0x0004)",TA0IV_TACCR2 
 A   286                       .define "TACCR1_",CCR1_ 
 A   287                       .define "(0*0x100u)",TASSEL_0 
 A   288                       .define "(1*0x100u)",TASSEL_1 
 A   289                       .define "(2*0x100u)",TASSEL_2 
 A   290                       .define "0",__TI_GNU_ATTRIBUTE_SUPPORT__ 
 A   291                       .define "(0*0x4000u)",CM_0 
 A   292                       .define "(3*0x100u)",TASSEL_3 
 A   293                       .define "(1*0x4000u)",CM_1 
 A   294                       .define "(0*2u)",CONSEQ_0 
 A   295                       .define "(0x0020)",EMEX 
 A   296                       .define "(2*0x4000u)",CM_2 
 A   297                       .define "(1*2u)",CONSEQ_1 
 A   298                       .define "(0x0004)",OUT 
 A   299                       .define "(3*0x4000u)",CM_3 
 A   300                       .define "(2*2u)",CONSEQ_2 
 A   301                       .define "(3*2u)",CONSEQ_3 
 A   302                       .define "(0x08)",USIAL 
 A   303                       .define "(0x010)",ADC10ON 
 A   304                       .define "TACCR2_",CCR2_ 
 A   305                       .define "1",__MSP430G2452 
 A   306                       .define "TA0CCR0_",TACCR0_ 
 A   307                       .define """.reset""",RESET_VECTOR 
 A   308                       .define "1",__little_endian__ 
 A   309                       .define "199409L",__STDC_VERSION__ 
 A   310                       .define "(0*8u)",ADC10SSEL_0 
 A   311                       .define "(1*8u)",ADC10SSEL_1 
 A   312                       .define "(2*8u)",ADC10SSEL_2 
 A   313                       .define "(3*8u)",ADC10SSEL_3 
 A   314                       .define """.int05""",ADC10_VECTOR 
 A   315                       .define "(0x20)",ACCVIE 
 A   316                       .define "(0x0400)",SCCI 
 A   317                       .define "(0x0001)",WDTIS0 
 A   318                       .define "(0x04)",XCAP0 
 A   319                       .define "TA0CCTL0_",TACCTL0_ 
 A   320                       .define "(0x0002)",WDTIS1 
 A   321                       .define "(0x08)",XCAP1 
 A   322                       .define "(0x0080)",FAIL 
 A   323                       .define "(0x0004)",MERAS 
 A   324                       .define "(0x40)",CARSEL 
 A   325                       .define "(0x0080)",SEGWRT 
 A   326                       .define "TA0CCR2_",TACCR2_ 
 A   327                       .define "TA0CCTL1_",TACCTL1_ 
 A   328                       .define "unsigned int",__WCHAR_T_TYPE__ 
MSP430 Evaluation Assembler PC v3.3.3 Sat Aug 02 11:19:27 2014

Tools Copyright (c) 2003-2010 Texas Instruments Incorporated
../msp430g2452.asm                                                   PAGE    7

 A   329                       .define "(0x0080)",WDTHOLD 
 A   330                       .define """.int03""",PORT2_VECTOR 
 A   331                       .define "(0x0004)",TACLR 
 A   332                       .define "1",__MSP430_HAS_ADC10__ 
 A   333                       .define "TA0CCR1_",TACCR1_ 
 A   334                       .define "(0x0002)",TAIE 
 A   335                       .define "TA0CCTL2_",TACCTL2_ 
 A   336                       .define "1",__MSP430_HAS_BC2__ 
 A   337                       .define "(0x0002)",ERASE 
 A   338                       .define "(0x0040)",SCG0 
 A   339                       .define "(0x0080)",SCG1 
 A   340                       .define "(0x00)",USIDIV_0 
 A   341                       .define "(0x20)",USIDIV_1 
 A   342                       .define "(0x40)",USIDIV_2 
 A   343                       .define "(0x0000)",FSSEL_0 
 A   344                       .define "(0x60)",USIDIV_3 
 A   345                       .define "(0x400)",ADC10SR 
 A   346                       .define "(0x008)",ADC10TB 
 A   347                       .define "(0x0040)",FSSEL_1 
 A   348                       .define "(0x80)",USIDIV_4 
 A   349                       .define "(0x0080)",FSSEL_2 
 A   350                       .define "TA0IV",TAIV 
 A   351                       .define "(0xA0)",USIDIV_5 
 A   352                       .define "(0x00C0)",FSSEL_3 
 A   353                       .define "(0xC0)",USIDIV_6 
 A   354                       .define "(0x40)",SELM0 
 A   355                       .define "(0xE0)",USIDIV_7 
 A   356                       .define "(0x80)",SELM1 
 A   357                       .define "(0x040)",REF2_5V 
 A   358                       .define "(0x0001)",CCIFG 
 A   359                       .define "(0x04)",USISSEL0 
 A   360                       .define "(0x08)",USISSEL1 
 A   361                       .define "(0x10)",USISSEL2 
 A   362                       .define "(0x10)",CAREF0 
 A   363                       .define "(0x20)",CAREF1 
 A   364                       .define "(0x80)",USISCLREL 
 A   365                       .define "(0x04)",USISTP 
 A   366                       .define "(0x04)",USIGE 
 A   367                       .define "(0x20)",USIPE5 
 A   368                       .define "(0x40)",USIPE6 
 A   369                       .define "(0x40)",USII2C 
 A   370                       .define "(0x80)",USIPE7 
 A   371                       .define "(0x00)",DIVS_0 
 A   372                       .define "(0x02)",DIVS_1 
 A   373                       .define "(0x04)",DIVS_2 
 A   374                       .define "TA0CCR0",TACCR0 
 A   375                       .define "1",__MSP430_HAS_WDT__ 
 A   376                       .define "(0x06)",DIVS_3 
 A   377                       .define "TA0CCR1",TACCR1 
 A   378                       .define "TA0CCR2",TACCR2 
 A   379                       .define "(0x08)",USIMST 
 A   380                       .define "1",__MSP430_HAS_USI__ 
 A   381                       .define "(0x02)",OFIFG 
 A   382                       .define "(WDTPW+WDTTMSEL+WDTCNTCL+WDTIS1)",WDT_MDLY_0_5 
 A   383                       .define "(0x10)",USIIE 
MSP430 Evaluation Assembler PC v3.3.3 Sat Aug 02 11:19:27 2014

Tools Copyright (c) 2003-2010 Texas Instruments Incorporated
../msp430g2452.asm                                                   PAGE    8

 A   384                       .define "(WDTPW+WDTCNTCL+WDTSSEL+WDTIS0)",WDT_ARST_250 
 A   385                       .define "(0x004)",ADC10IFG 
 A   386                       .define "(0*0x20u)",OUTMOD_0 
 A   387                       .define "(0x00)",DIVM_0 
 A   388                       .define "(1*0x20u)",OUTMOD_1 
 A   389                       .define "(0x10)",DIVM_1 
 A   390                       .define "(2*0x20u)",OUTMOD_2 
 A   391                       .define "(0x20)",DIVM_2 
 A   392                       .define "(3*0x20u)",OUTMOD_3 
 A   393                       .define "(0x30)",DIVM_3 
 A   394                       .define "(4*0x20u)",OUTMOD_4 
 A   395                       .define "(5*0x20u)",OUTMOD_5 
 A   396                       .define "(6*0x20u)",OUTMOD_6 
 A   397                       .define "(7*0x20u)",OUTMOD_7 
 A   398                       .define "(0x02)",OFIE 
 A   399                       .define "(0x0004)",ACCVIFG 
 A   400                       .define "(0x0008)",ADC10SSEL0 
 A   401                       .define "(0x0040)",FSSEL0 
 A   402                       .define "(0x0010)",ADC10SSEL1 
 A   403                       .define "(0x0080)",FSSEL1 
 A   404                       .define "(0x0004)",WDTSSEL 
 A   405                       .define "(0x00)",XT2S_0 
 A   406                       .define "(0x40)",XT2S_1 
 A   407                       .define "(0x80)",XT2S_2 
 A   408                       .define "(0xC0)",XT2S_3 
 A   409                       .define "(0x0001)",FN0 
 A   410                       .define "(0x01)",WDTIE 
 A   411                       .define "(0x0002)",FN1 
 A   412                       .define "(0x0004)",FN2 
 A   413                       .define "(0x0008)",FN3 
 A   414                       .define "(0x0010)",FN4 
 A   415                       .define "(0x0000)",TA0IV_NONE 
 A   416                       .define "(0x0020)",FN5 
 A   417                       .define "(0x20)",USIIFGCC 
 A   418                       .define "(0x04)",PORIFG 
 A   419                       .define "(0x10)",DIVA0 
 A   420                       .define """Aug  2 2014""",__DATE__ 
 A   421                       .define "(0x20)",DIVA1 
 A   422                       .define "(0x002)",ADC10B1 
 A   423                       .define "(WDTPW+WDTTMSEL+WDTCNTCL+WDTSSEL+WDTIS1+WDTIS0)",WDT_ADLY_1_9 
 A   424                       .define "1",__MSP430_HAS_CAPLUS__ 
 A   425                       .define "TACCTL0_",CCTL0_ 
 A   426                       .define "(0x00)",XCAP_0 
 A   427                       .define "(0x04)",XCAP_1 
 A   428                       .define "(0x08)",XCAP_2 
 A   429                       .define "(0x0C)",XCAP_3 
 A   430                       .define "(0x08)",SELS 
 A   431                       .define "TA0CTL",TACTL 
 A   432                       .define "1",_INLINE  
 A   433                       .define "(0x00)",DIVA_0 
 A   434                       .define "(0x10)",DIVA_1 
 A   435                       .define "(0x02)",XT2OF 
 A   436                       .define "TACCTL1_",CCTL1_ 
 A   437                       .define "(0x20)",DIVA_2 
 A   438                       .define "(0x30)",DIVA_3 
MSP430 Evaluation Assembler PC v3.3.3 Sat Aug 02 11:19:27 2014

Tools Copyright (c) 2003-2010 Texas Instruments Incorporated
../msp430g2452.asm                                                   PAGE    9

 A   439                       .define "(0x01)",USISWCLK 
 A   440                       .define "(0x00)",CAREF_0 
 A   441                       .define "(0x10)",CAREF_1 
 A   442                       .define "(0x20)",CAREF_2 
 A   443                       .define "(0x30)",CAREF_3 
 A   444                       .define "303",__EDG_VERSION__ 
 A   445                       .define "(WDTPW+WDTCNTCL+WDTIS0)",WDT_MRST_8 
 A   446                       .define "(0x80)",CAEX 
 A   447                       .define "(0x0020)",WDTNMI 
 A   448                       .define """.int11""",COMPARATORA_VECTOR 
 A   449                       .define "TACCTL2_",CCTL2_ 
 A   450                       .define "TA0IV_",TAIV_ 
 A   451                       .define "(0x40)",XTS 
 A   452                       .define "(0x0010)",MC0 
 A   453                       .define "(0x0020)",MC1 
 A   454                       .define "1",__MSP430_HAS_FLASH2__ 
 A   455            
 A   456            ; =========== TYPE DEFINITIONS ===========
 A   457            
 A   458            ; =========== EXTERNAL FUNCTIONS ===========
 A   459            
 A   460            ; =========== EXTERNAL VARIABLES ===========
 A   461                       .global IE1          
 A   462                       .global IFG1         
 A   463                       .global ADC10DTC0    
 A   464                       .global ADC10DTC1    
 A   465                       .global ADC10AE0     
 A   466                       .global ADC10CTL0    
 A   467                       .global ADC10CTL1    
 A   468                       .global ADC10MEM     
 A   469                       .global ADC10SA      
 A   470                       .global DCOCTL       
 A   471                       .global BCSCTL1      
 A   472                       .global BCSCTL2      
 A   473                       .global BCSCTL3      
 A   474                       .global CACTL1       
 A   475                       .global CACTL2       
 A   476                       .global CAPD         
 A   477                       .global FCTL1        
 A   478                       .global FCTL2        
 A   479                       .global FCTL3        
 A   480                       .global P1IN         
 A   481                       .global P1OUT        
 A   482                       .global P1DIR        
 A   483                       .global P1IFG        
 A   484                       .global P1IES        
 A   485                       .global P1IE         
 A   486                       .global P1SEL        
 A   487                       .global P1SEL2       
 A   488                       .global P1REN        
 A   489                       .global P2IN         
 A   490                       .global P2OUT        
 A   491                       .global P2DIR        
 A   492                       .global P2IFG        
 A   493                       .global P2IES        
MSP430 Evaluation Assembler PC v3.3.3 Sat Aug 02 11:19:27 2014

Tools Copyright (c) 2003-2010 Texas Instruments Incorporated
../msp430g2452.asm                                                   PAGE   10

 A   494                       .global P2IE         
 A   495                       .global P2SEL        
 A   496                       .global P2SEL2       
 A   497                       .global P2REN        
 A   498                       .global TA0IV        
 A   499                       .global TA0CTL       
 A   500                       .global TA0CCTL0     
 A   501                       .global TA0CCTL1     
 A   502                       .global TA0CCTL2     
 A   503                       .global TA0R         
 A   504                       .global TA0CCR0      
 A   505                       .global TA0CCR1      
 A   506                       .global TA0CCR2      
 A   507                       .global USICTL0      
 A   508                       .global USICTL1      
 A   509                       .global USICKCTL     
 A   510                       .global USICNT       
 A   511                       .global USISRL       
 A   512                       .global USISRH       
 A   513                       .global USICTL       
 A   514                       .global USICCTL      
 A   515                       .global USISR        
 A   516                       .global WDTCTL       
 A   517                       .global CALDCO_16MHZ 
 A   518                       .global CALBC1_16MHZ 
 A   519                       .global CALDCO_12MHZ 
 A   520                       .global CALBC1_12MHZ 
 A   521                       .global CALDCO_8MHZ  
 A   522                       .global CALBC1_8MHZ  
 A   523                       .global CALDCO_1MHZ  
 A   524                       .global CALBC1_1MHZ  
       3      0044  IdTypeMSP430    .equ    0x44            ; must exists in "piccodes.ini"
       4      0034  FamilyMSP430    .equ    0x34            ; LPC Family "4"
       5            
       6      2000  max_flash       .equ    0x2000          ; in bytes, not WORDS!!!
       7            
       8      4240  xtal            .equ    1000000         ; you may also want to change
              000F 
       9      2580  baud            .equ    9600            ; standard TinyBld baud rates: 115200 or 19200
      10            
      11      0001  TXport          .equ    1               ; MSP430 TX Data output port (i.e. 1 = P1.TX)
      12      0001  RXport          .equ    1               ; MSP430 RX Data input  port (i.e. 2 = P2.RX)
      13      0004  TX              .equ    4               ; MSP430 TX Data output pin (i.e. 2 = Px.2)
      14      0005  RX              .equ    5               ; MSP430 RX Data input  pin (i.e. 3 = Px.3)
      15            ;Direct_TX      .equ    0               ; RS-232C TX Direct Connection(No use MAX232)
      16            ;Direct_RX      .equ    0               ; RS-232C RX Direct Connection(No use MAX232)
      17            
      18            ;   The above 12 lines can be changed and buid a bootloader for the desired frequency (and PIC type)
      19            
      20                .if TXport = 1
      21      0000! TXP             .equ    P1OUT
      22                .else
      23            TXP             .equ    P2OUT
      24                .endif
      25                .if RXport = 1
MSP430 Evaluation Assembler PC v3.3.3 Sat Aug 02 11:19:27 2014

Tools Copyright (c) 2003-2010 Texas Instruments Incorporated
../msp430g2452.asm                                                   PAGE   11

      26      0000! RXP             .equ    P1IN
      27                .else
      28            RXP             .equ    P2IN
      29                .endif
      30            
      31      0004  _bwait2         .equ    R4
      32      0005  _SendL          .equ    R5
      33      0006  _Receive        .equ    R6
      34      0007  _wr             .equ    R7
      35      0008  _TX             .equ    R8
      36      0009  _RX             .equ    R9
      37      000A  count           .equ    R10
      38      000B  Address         .equ    R11
      39      000C  crc             .equ    R12
      40      000D  cnt1            .equ    R13
      41      000E  cnt2            .equ    R14
      42      000D  cn              .equ    cnt1
      43      000E  rs              .equ    cnt2
      44      000F  rxd             .equ    R15
      45            
      46                    ;********************************************************************
      47                    ;       Tiny Bootloader   MSP430G2X12 MSP430G2X52   Size=136+192bytes
      48                    ;
      49                    ;       (2013.08.02 Revision 1)
      50                    ;       This program is only available in Tiny PIC/AVR Bootloader +.
      51                    ;
      52                    ;       Tiny PIC/AVR Bootloader +
      53                    ;       https://sourceforge.net/projects/tinypicbootload/
      54                    ;
      55                    ;
      56                    ;       Please add the following line to piccodes.ini
      57                    ;
      58                    ;       $41, 4, MSP430 G2152,   $400,   0,     136, 64,
      59                    ;       $41, 4, MSP430 G2112,   $400,   0,     136, 64,
      60                    ;       $42, 4, MSP430 G2252,   $800,   0,     136, 64,
      61                    ;       $42, 4, MSP430 G2212,   $800,   0,     136, 64,
      62                    ;       $43, 4, MSP430 G2352,   $1000,  0,     136, 64,
      63                    ;       $43, 4, MSP430 G2312,   $1000,  0,     136, 64,
      64                    ;       $44, 4, MSP430 G2452,   $2000,  0,     136, 64,
      65                    ;       $44, 4, MSP430 G2412,   $2000,  0,     136, 64,
      66                    ;
      67                    ;********************************************************************
      68            
      69      1F78  first_address   .equ    max_flash - 136         ; 68 word in size
      70      0280  STACK           .equ    0x0280                  ; Stack start address
      71      0200  BUFTOP          .equ    0x0200                  ; Buffer
      72      0260  BUFEND          .equ    0x0260
      73      FF80  BLDTOP          .equ    0x10000 - 136 + 8       ; Bootloader
      74      FFE0  BLDEND          .equ    0xFFE0
      75            
      76            ;------------------------------------------------------------------------------
      77 000000                    .sect   ".text2"
      78            ;------------------------------------------------------------------------------
      79            
      80 000000       IntrareBootloader2:
MSP430 Evaluation Assembler PC v3.3.3 Sat Aug 02 11:19:27 2014

Tools Copyright (c) 2003-2010 Texas Instruments Incorporated
../msp430g2452.asm                                                   PAGE   12

      81 000000 4034                  MOV.W   #bwait2,_bwait2                 ; _bwait2
         000002 1F9E!
      82 000004 4035                  MOV.W   #SendL,_SendL                   ; _SendL
         000006 1F84!
      83 000008 4036                  MOV.W   #Receive,_Receive               ; _Receive
         00000a 1FAA!
      84 00000c 4037                  MOV.W   #wr,_wr                         ; _wr
         00000e 00AE!
      85 000010 4078                  MOV.B   #(1<<TX),_TX                    ; _TX
         000012 0010 
      86 000014 4079                  MOV.B   #(1<<RX),_RX                    ; _RX
         000016 0020 
      87 000018 4031                  MOV.W   #STACK,SP                       ; Initialize stackpointer
         00001a 0280 
      88 00001c 40B2                  MOV.W   #WDTPW+WDTHOLD,&WDTCTL          ; Stop WDT
         00001e 5A80 
         000020 0000!
      89 000022 42D2                  MOV.B   &CALBC1_1MHZ,&BCSCTL1           ; Clock Calibration
         000024 0000!
         000026 0000!
      90 000028 42D2                  MOV.B   &CALDCO_1MHZ,&DCOCTL            ; 1MHz
         00002a 0000!
         00002c 0000!
      91 00002e 40B2                  MOV.W   #FWKEY+FSSEL1+FN0,&FCTL2        ; Flash Clock = SMCLK/2
         000030 A581 
         000032 0000!
      92 000034 40B2                  MOV.W   #FWKEY,&FCTL3                   ; Flash UNLOCK
         000036 A500 
         000038 0000!
      93 00003a D8C2                  BIS.B   _TX,&P1DIR                      ; set TX Port
         00003c 0000!
      94            
      95 00003e 1286                  CALL    _Receive                        ; wait for computer
      96 000040 807F                  SUB.B   #0xC1,rxd                       ; Expect C1
         000042 00C1 
      97 000044 2402                  JEQ     copy_to_RAM_48W                 ; Receive C1
      98 000046 4030                  MOV.W   #User_Vector,PC                 ; connection errer or timeout
         000048 1F78!
      99            
     100 00004a       copy_to_RAM_48W:                                        ; copy Flash to RAM 48 words
     101 00004a 403F                  MOV.W   #BLDTOP,R15                     ; R15 = #BLDTOP
         00004c FF80 
     102 00004e 4F0B                  MOV.W   R15,Address                     ; Address = #BLDTOP
     103 000050 4FBF  $1              MOV.W   @R15+,BUFTOP-BLDTOP-2(R15)      ; [0xFF80,0xFFDF] --> [0x0200,0x025F]
         000052 027E 
     104 000054 903F                  CMP.W   #BLDEND,R15                     ; 
         000056 FFE0 
     105 000058 23FB                  JNE     $1                              ; loop
     106 00005a       erase_All_Segments:                                     ; erase All Segments
     107 00005a 40B2                  MOV.W   #FWKEY+MERAS,&FCTL1             ; enable erase
         00005c A504 
         00005e 0000!
     108 000060 43CF                  CLR.B   0(R15)                          ; dummy write
         000062 0000 
     109 000064       back_to_Flash_48W:                                      ; back to Flash 48 words
MSP430 Evaluation Assembler PC v3.3.3 Sat Aug 02 11:19:27 2014

Tools Copyright (c) 2003-2010 Texas Instruments Incorporated
../msp430g2452.asm                                                   PAGE   13

     110 000064 403E                  MOV.W   #BUFTOP,R14                     ; R14 = #BUFTOP
         000066 0200 
     111 000068 4E7F  $2              MOV.B   @R14+,rxd                       ; [0x0200,0x025F] --> [0xFF80,0xFFDF]
     112 00006a 1287                  CALL    _wr                             ; write Data
     113 00006c 531B                  INC.W   Address                         ; Address = Address + 1
     114 00006e 903E                  CMP.W   #BUFEND,R14                     ; 
         000070 0260 
     115 000072 23FA                  JNE     $2                              ; loop
     116 000074       write_Reset_Vector:                                     ; write Reset Vector
     117 000074 403B                  MOV.W   #0xFFFE,Address                 ; (0xFFFE)=0xFF80
         000076 FFFE 
     118 000078 407F                  MOV.B   #(IntrareBootloader & 0xFF),rxd ;
         00007a 0000%
     119 00007c 1287                  CALL    _wr                             ; write Data
     120            
     121 00007e 407F                  MOV.B   #IdTypeMSP430,rxd               ; send IdType
         000080 0044 
     122 000082 1285                  CALL    _SendL
     123 000084       MainLoop:
     124 000084 407F                  MOV.B   #FamilyMSP430,rxd               ; send Family ID
         000086 0034 
     125 000088       mainl:
     126 000088 1285                  CALL    _SendL                          ;
     127 00008a 434C                  CLR.B   crc                             ; clear Checksum
     128 00008c 1286                  CALL    _Receive                        ; Address_H
     129 00008e 4F0B                  MOV.W   rxd,Address                     ; set Address(H)
     130 000090 1286                  CALL    _Receive                        ; Address_L
     131 000092 108B                  SWPB    Address                         ; set Address(H:L)
     132 000094 5F0B                  ADD.W   rxd,Address                     ;
     133 000096 1286                  CALL    _Receive                        ; count
     134 000098 4F4A                  MOV.B   rxd,count                       ; set count
     135 00009a       write_Data:
     136 00009a 1286                  CALL    _Receive                        ; get Data
     137 00009c 1287                  CALL    _wr                             ; write Data
     138 00009e 531B                  INC.W   Address                         ; Address = Address + 1
     139 0000a0 835A                  DEC.B   count                           ; count = 0 ?
     140 0000a2 23FB                  JNE     write_Data                      ; loop
     141            
     142 0000a4 1286                  CALL    _Receive                        ; crc
     143 0000a6       ziieroare:
     144 0000a6 407F                  MOV.B   #'N',rxd                        ; send "N"
         0000a8 004E 
     145 0000aa 23EE                  JNE     mainl                           ; retry
     146 0000ac 3FEB                  JMP     MainLoop                        ; loop
     147            
     148 0000ae       wr:
     149 0000ae 40B2                  MOV.W   #FWKEY+WRT,&FCTL1               ; enable Word/Byte Write
         0000b0 A540 
         0000b2 0000!
     150 0000b4 4FCB                  MOV.B   rxd,0(Address)                  ; write
         0000b6 0000 
     151 0000b8 40B2                  MOV.W   #FWKEY,&FCTL1                   ; clear WRT
         0000ba A500 
         0000bc 0000!
     152 0000be 4130                  RET
MSP430 Evaluation Assembler PC v3.3.3 Sat Aug 02 11:19:27 2014

Tools Copyright (c) 2003-2010 Texas Instruments Incorporated
../msp430g2452.asm                                                   PAGE   14

     153            
     154            ;------------------------------------------------------------------------------
     155 000000                    .text
     156            ;------------------------------------------------------------------------------
     157            
     158 000000                       .space  first_address
     159 001f78       User_Vector:
     160 001f78 4303                  NOP
     161 001f7a 4303                  NOP
     162 001f7c 4303                  NOP
     163 001f7e 4303                  NOP
     164            
     165 001f80       IntrareBootloader:
     166 001f80 4030                  MOV.W   #IntrareBootloader2,PC  ;goto bootloader
         001f82 0000!
     167            
     168 001f84       SendL:
     169 001f84 407D                  MOV.B   #(1+8+1)*2,cn           ; 10-bit Data
         001f86 0014 
     170                        .if $defined(Direct_TX)
     171                            BIC.B   _TX,&P1OUT              ; rs must be 0
     172                            JMP     $11                     ; Start bit
     173                        .else
     174 001f88 D8C2                  BIS.B   _TX,&P1OUT              ; rs must be 0
         001f8a 0000!
     175 001f8c 3C03                  JMP     $12                     ; Start bit
     176                        .endif
     177 001f8e 104F  $10             RRC.B   rxd                     ; Rotate Right through Carry    [1]
     178                        .if $defined(Direct_TX)
     179                            JC      $12                     ;
     180                        .else
     181 001f90 2801                  JNC     $12                     ;                               [2]
     182                        .endif
     183 001f92 E37E  $11             INV.B   rs                      ; rs = 0b11111111               [1]
     184 001f94 4EC2  $12             MOV.B   rs,&P1OUT               ; set TX='1' if Carry='1'       [2]
         001f96 0000!
     185 001f98 1284                  CALL    _bwait2                 ; wait 1/2 bit                  [4+3N+7]
     186 001f9a 1284                  CALL    _bwait2                 ; wait 1/2 bit                  [4+3N+7]
     187 001f9c 23F8                  JNE     $10                     ; Carry='1' loop                [2]
     188 001f9e       bwait2:
     189 001f9e 407E                  MOV.B   #(xtal/baud-31)/6,rs    ;[2]
         001fa0 000C 
     190 001fa2 835E  $20             DEC.B   rs                      ;[1]
     191 001fa4 23FE                  JNE     $20                     ;[2]
     192 001fa6 835D                  DEC.B   cn                      ;[1]
     193 001fa8 4130                  RET                             ;[4] 3N+7
     194            
     195 001faa       Receive:
     196 001faa 422D                  MOV.W   #xtal/500000+2,cnt1
     197 001fac       rpt2:
     198            ;               CLR.W   cnt2
     199 001fac       rptc:                                           ; check Start bit
     200 001fac B9C2                  BIT.B   _RX,&P1IN
         001fae 0000!
     201                        .if $defined(Direct_RX)
MSP430 Evaluation Assembler PC v3.3.3 Sat Aug 02 11:19:27 2014

Tools Copyright (c) 2003-2010 Texas Instruments Incorporated
../msp430g2452.asm                                                   PAGE   15

     202                            JEQ     nodata
     203                        .else
     204 001fb0 200C                  JNE     nodata
     205                        .endif
     206 001fb2 1284                  CALL    _bwait2                 ; wait 1/2 bit
     207 001fb4 407D                  MOV.B   #(8+1)*2,cn             ; 9-bit Data
         001fb6 0012 
     208 001fb8 B9C2  $30             BIT.B   _RX,&P1IN               ; get Bit Data
         001fba 0000!
     209 001fbc 104F                  RRC.B   rxd                     ; set Bit Data
     210 001fbe 1284                  CALL    _bwait2                 ; wait 1/2 bit
     211 001fc0 1284                  CALL    _bwait2                 ; wait 1/2 bit
     212 001fc2 23FA                  JNE     $30                     ; loop
     213                        .if $defined(Direct_RX)
     214                            INV.B   rxd
     215                        .else
     216 001fc4 4F4F                  MOV.B   rxd,rxd
     217                        .endif
     218 001fc6 5F4C                  ADD.B   rxd,crc                 ; compute checksum
     219 001fc8 4130                  RET
     220 001fca       nodata:
     221 001fca 831E                  DEC.W   cnt2
     222 001fcc 23EF                  JNE     rptc
     223 001fce 831D                  DEC.W   cnt1
     224 001fd0 23ED                  JNE     rpt2
     225 001fd2       way_to_exit:
     226 001fd2 40B2                  MOV.W   #FWKEY+LOCK,&FCTL3      ; Flash LOCK
         001fd4 A510 
         001fd6 0000!
     227 001fd8 3FCF                  JMP     User_Vector             ; timeout:exit in all other cases
     228            
     229            ;------------------------------------------------------------------------------
     230            ;           Interrupt Vectors
     231            ;------------------------------------------------------------------------------
     232 000000                   .sect   ".reset"                ; MSP430 RESET Vector
     233 000000 1F80!             .short  IntrareBootloader       ;
     234                        .end

No Assembly Errors, No Assembly Warnings
