MPASM  5.51  TINYBLD16F1507_8MHZ_INT_9600.ASM   6-9-2014  22:43:50         PAGE  1


LOC  OBJECT CODE     LINE SOURCE TEXT
  VALUE

                      00001         radix   DEC
                      00002         
                      00003         ; change these lines accordingly to your application    
                      00004 #include "p16f1507.inc"
                      00001         LIST
                      00002 
                      00003 ;==========================================================================
                      00004 ;  MPASM PIC16F1507 processor include
                      00005 ; 
                      00006 ;  (c) Copyright 1999-2013 Microchip Technology, All rights reserved
                      00007 ;==========================================================================
                      00008 
Message[301]: MESSAGE: (Processor-header file mismatch.  Verify selected processor.)
                      01289         LIST
  00000022            00005 IdTypePIC = 0x22                ; , Please refer to the table below, must exists in "piccodes.ini"      
                      00006 #define max_flash 0x800         ; in WORDS, not bytes!!! (= 'max flash memory' from "piccodes.ini" divid
                            ed by 2), Please refer to the table below
                      00007         
  007A1200            00008 xtal    EQU     8000000         ; you may also want to change: _HS_OSC _XT_OSC
  00002580            00009 baud    EQU     9600            ; standard TinyBld baud rates: 115200 or 19200
                      00010 
                      00011         #define TXP     1                ; PIC TX Data port (1:A,2:B,3:C), Please refer to the table bel
                            ow
                      00012         #define TX      0                ; PIC TX Data output pin (i.e. 2=RA2 or RB2 or RC2, it depends 
                            on "PIC TX Data port")
                      00013         #define RXP     1                ; PIC RX Data port (1:A,2:B,3:C), Please refer to the table bel
                            ow
                      00014         #define RX      1                ; PIC RX Data input pin  (i.e. 3=RA3 or RB3 or RC3, it depends 
                            on "PIC RX Data port")
                      00015 ;        #define Direct_TX               ; RS-232C TX Direct Connection(No use MAX232)
                      00016 ;        #define Direct_RX               ; RS-232C RX Direct Connection(No use MAX232)
                      00017 ;   The above 11 lines can be changed and buid a bootloader for the desired frequency (and PIC type)
                      00018 
                      00019 ; +---------+--------+------------+-----------+--------+-------+------+
                      00020 ; |IdTypePIC| Device | Erase_Page | max_flash | EEPROM | PORT  | PDIP |
                      00021 ; +---------+--------+------------+-----------+--------+-------+------+
                      00022 ; |   0x17  |12F1501 |  16 words  |  0x0400   |    0   | A     |   8  |
                      00023 ; |   0x22  |16F1503 |  16 words  |  0x0800   |    0   | A   C |  14  |
                      00024 ; |   0x22  |16F1507 |  16 words  |  0x0800   |    0   | A B C |  20  |
                      00025 ; +---------+--------+------------+-----------+--------+-------+------+
                      00026 
                      00027 ; +----------+------+----------+------+ +----------+------+
                      00028 ; | register | BANK | register | BANK | |subroutine| BANK |
                      00029 ; +----------+------+----------+------+ +----------+------+
                      00030 ; | PMCON1/2 |  3   |PMADRL/DAT|  3   | | Receive  |->0->3|
                      00031 ; +----------+------+----------+------+ +----------+------+
                      00032 ; | ANSELA   |  3   |          |      |
                      00033 ; +----------+------+----------+------+
                      00034 
                      00035  #if (TXP==1)
                      00036         #define TXPORT     PORTA        ;PORTA
                      00037  #endif
                      00038  #if (TXP==2)
MPASM  5.51  TINYBLD16F1507_8MHZ_INT_9600.ASM   6-9-2014  22:43:50         PAGE  2


LOC  OBJECT CODE     LINE SOURCE TEXT
  VALUE

                      00039         #define TXPORT     PORTA+1      ;PORTB
                      00040  #endif
                      00041  #if (TXP==3)
                      00042         #define TXPORT     PORTA+2      ;PORTC
                      00043  #endif
                      00044  #if (RXP==1)
                      00045         #define RXPORT     PORTA        ;PORTA
                      00046  #endif
                      00047  #if (RXP==2)
                      00048         #define RXPORT     PORTA+1      ;PORTB
                      00049  #endif
                      00050  #if (RXP==3)
                      00051         #define RXPORT     PORTA+2      ;PORTC
                      00052  #endif
                      00053 
                      00054         ;********************************************************************
                      00055         ;       Tiny Bootloader         12F1501 16F1503/07      Size=100words
                      00056         ;       (2014.06.09 Revision 13)
                      00057         ;
                      00058         ;       This program is only available in Tiny PIC Bootloader +.
                      00059         ;
                      00060         ;       Tiny PIC Bootloader +
                      00061         ;       https://sourceforge.net/projects/tinypicbootload/
                      00062         ;
                      00063         ;
                      00064         ;       Please add the following line to piccodes.ini
                      00065         ;
                      00066         ;
                      00067         ;       $17, B, 12F 1501, $800, $000, default, 32,
                      00068         ;
                      00069         ;********************************************************************
                      00070 
                      00071 
                      00072         #define first_address max_flash-100 ; 100 word in size
                      00073 
Message[303]: Program word too large.  Truncated to core size. (F9C4)
8007   39C4           00074     __CONFIG _CONFIG1, _FOSC_INTOSC & _WDTE_OFF & _PWRTE_ON & _MCLRE_ON & _CP_OFF & _BOREN_OFF & _CLKOUT
                            EN_OFF
Message[303]: Program word too large.  Truncated to core size. (DDFF)
8008   1DFF           00075     __CONFIG _CONFIG2, _WRT_OFF & _STVREN_OFF & _BORV_LO & _LPBOR_OFF & _LVP_OFF
                      00076 
                      00077 ;       errorlevel 1, -305              ; suppress warning msg that takes f as default
                      00078 
                      00079         cblock 0x7A
  0000007A            00080         crc
  0000007B            00081         cnt1
  0000007C            00082         cnt2
  0000007D            00083         cnt3
  0000007E            00084         cn
  0000007F            00085         rxd
                      00086         endc
                      00087 
                      00088 ;0000000000000000000000000 RESET 00000000000000000000000000
MPASM  5.51  TINYBLD16F1507_8MHZ_INT_9600.ASM   6-9-2014  22:43:50         PAGE  3


LOC  OBJECT CODE     LINE SOURCE TEXT
  VALUE

                      00089 
0000                  00090                 org     0x0000
                      00091 ;               goto    IntrareBootloader
0000   339F           00092                 DW      0x339F          ;bra $-0x60
                      00093 
                      00094                                         ;view with TabSize=4
                      00095 ;&&&&&&&&&&&&&&&&&&&&&&&   START     &&&&&&&&&&&&&&&&&
                      00096 ;----------------------  Bootloader  ----------------------
                      00097 ;
                      00098 ;PC_flash:      C1h          AddrH  AddrL  nr  ...(DataLo DataHi)...  crc
                      00099 ;PIC_response:  id   K                                                 K
                      00100 
079C                  00101                 org     first_address
                      00102 ;               nop
                      00103 ;               nop
                      00104 ;               nop
                      00105 ;               nop
                      00106 
07A0                  00107                 org     first_address+4
07A0                  00108 IntrareBootloader:
07A0   3187           00109                 movlp   (max_flash>>8)-1
                      00110                                         ;init int clock & serial port
07A1   0021           00111                 movlb   0x01            ;BANK1
07A2   3070           00112                 movlw   B'01110000'     ;internal clock 8MHz
Message[302]: Register in operand not in bank 0.  Ensure that bank bits are correct.
07A3   0099           00113                 movwf   OSCCON
                      00114 
                      00115  #if (TXP==1)
Message[302]: Register in operand not in bank 0.  Ensure that bank bits are correct.
07A4   100C           00116                 bcf     TRISA,TX        ;TRISA
                      00117  #endif
                      00118  #if (TXP==2)
                      00119                 bcf     TRISA+1,TX      ;TRISB
                      00120  #endif
                      00121  #if (TXP==3)
                      00122                 bcf     TRISA+2,TX      ;TRISC
                      00123  #endif
                      00124 
07A5   0023           00125                 movlb   0x03            ;BANK3
                      00126 
                      00127  #if ((TXP==1) | (RXP==1))
Message[302]: Register in operand not in bank 0.  Ensure that bank bits are correct.
07A6   018C           00128                 clrf     ANSELA         ;ANSELA
                      00129  #endif
                      00130  #if ((TXP==2) | (RXP==2))
                      00131                 clrf     ANSELA+1       ;ANSELB
                      00132  #endif
                      00133  #if ((TXP==3) | (RXP==3))
                      00134                 clrf     ANSELA+2       ;ANSELC
                      00135  #endif
                      00136                                         ;wait for computer
07A7   27C7           00137                 call    Receive
07A8   0020           00138                 movlb   0x00            ;BANK0
MPASM  5.51  TINYBLD16F1507_8MHZ_INT_9600.ASM   6-9-2014  22:43:50         PAGE  4


LOC  OBJECT CODE     LINE SOURCE TEXT
  VALUE

07A9   3CC1           00139                 sublw   0xC1            ;Expect C1
07AA   1D03           00140                 skpz
07AB   3232           00141                 bra     way_to_exit
07AC   3022           00142                 movlw   IdTypePIC       ;PIC type
07AD   27EC           00143                 call    SendL
                      00144 ;               SendL   IdSoftVer       ;firmware ver x
                      00145 
07AE                  00146 MainLoop:
07AE   3042           00147                 movlw   'B'
07AF                  00148 mainl:
07AF   0020           00149                 movlb   0x00            ;BANK0
07B0   27EC           00150                 call    SendL
07B1   01FA           00151                 clrf    crc             ;clear checksum
07B2   27C7           00152                 call    Receive         ;get PMADRH
Message[302]: Register in operand not in bank 0.  Ensure that bank bits are correct.
07B3   0092           00153                 movwf   PMADRH
07B4   27C7           00154                 call    Receive         ;get PMADRL
Message[302]: Register in operand not in bank 0.  Ensure that bank bits are correct.
07B5   0091           00155                 movwf   PMADRL
07B6   27C7           00156                 call    Receive         ;get count (Only Receive)
07B7                  00157 rcvoct:
07B7   27C7           00158                 call    Receive         ; get Data(L)
Message[302]: Register in operand not in bank 0.  Ensure that bank bits are correct.
07B8   0093           00159                 movwf   PMDATL
07B9   27C7           00160                 call    Receive         ; get Data(H)
Message[302]: Register in operand not in bank 0.  Ensure that bank bits are correct.
07BA   0094           00161                 movwf   PMDATH
07BB   27E1           00162                 call    wr_l            ; write Latches (Return w=0x01)
Message[302]: Register in operand not in bank 0.  Ensure that bank bits are correct.
07BC   0791           00163                 addwf   PMADRL,f
07BD   1C83           00164                 skpdc                   ; skip if PMADRL=B'XXXX0000'
07BE   33F8           00165                 bra     rcvoct          ; loop
                      00166 
07BF   27C7           00167                 call    Receive         ; get Checksum
07C0                  00168 ziieroare:
07C0   304E           00169                 movlw   'N'
07C1   1D03           00170                 skpz                    ; test Checksum
07C2   33EC           00171                 bra     mainl           ; Checksum error
                      00172 
Message[302]: Register in operand not in bank 0.  Ensure that bank bits are correct.
07C3   0391           00173                 decf    PMADRL,f        ; adjust PMADRL
07C4   27E0           00174                 call    wr_e            ; erase Flash Page
07C5   27E2           00175                 call    wr_w            ; write Flash Page
07C6   33E7           00176                 bra     MainLoop        ; loop
                      00177 
                      00178 ; ********************************************************************
                      00179 ;
                      00180 ;               RS-232C Recieve 1byte with Timeout and Check Sum
                      00181 ;
                      00182 ; ********************************************************************
                      00183 
07C7                  00184 Receive:
07C7   0020           00185                 movlb   0x00            ;BANK0
MPASM  5.51  TINYBLD16F1507_8MHZ_INT_9600.ASM   6-9-2014  22:43:50         PAGE  5


LOC  OBJECT CODE     LINE SOURCE TEXT
  VALUE

07C8   3006           00186                 movlw   xtal/2000000+2  ;for 20MHz => 11 => 1second
07C9   00FB           00187                 movwf   cnt1
07CA                  00188 rpt2:
                      00189 ;               clrf    cnt2
07CA                  00190 rpt3:
                      00191 ;               clrf    cnt3
07CA                  00192 rptc:                                   ;Check Start bit
                      00193         #ifdef  Direct_RX
                      00194                 btfss   RXPORT,RX
                      00195         #else
07CA   188C           00196                 btfsc   RXPORT,RX
                      00197         #endif
07CB   320C           00198                 bra     loop            ;loop
07CC                  00199 r1rx11:
07CC   27F9           00200                 call    bwait2          ; wait 1/2 bit and W=9
07CD   00FE           00201                 movwf   cn              ; cn=9
07CE   0CFF           00202                 rrf     rxd,f           ; get bit data
07CF   27F8           00203                 call    bwait           ; wait 1 bit and set Carry=1
                      00204 
                      00205         #ifdef  Direct_RX
                      00206                 btfsc   RXPORT,RX
                      00207         #else
07D0   1C8C           00208                 btfss   RXPORT,RX
                      00209         #endif
                      00210 
07D1   1003           00211                 bcf     STATUS,C
                      00212 
07D2   0BFE           00213                 decfsz  cn,f            ; cn=0?
07D3   33FA           00214                 bra     $-5             ; loop
07D4   087F           00215                 movf    rxd,w           ; return in w
07D5   07FA           00216                 addwf   crc,f           ; compute checksum
07D6   0023           00217                 movlb   0x03            ; BANK3
07D7   0008           00218                 return
07D8                  00219 loop:
07D8   0BFD           00220                 decfsz  cnt3,f
07D9   33F0           00221                 bra     rptc
07DA   0BFC           00222                 decfsz  cnt2,f
07DB   33EE           00223                 bra     rpt3
07DC   0BFB           00224                 decfsz  cnt1,f
07DD   33EC           00225                 bra     rpt2
07DE                  00226 way_to_exit:
07DE   018A           00227                 clrf    PCLATH
07DF   33BC           00228                 bra     first_address   ; timeout:exit in all other cases
                      00229                                         ; PCLATH=0, Please do not change the GOTO instruction.
                      00230 
                      00231 ;*************************************************************
                      00232 ;
                      00233 ;               Program Flash
                      00234 ;
                      00235 ;               (Return:W=0x01)
                      00236 ;
                      00237 ; ************************************************************
                      00238 
MPASM  5.51  TINYBLD16F1507_8MHZ_INT_9600.ASM   6-9-2014  22:43:50         PAGE  6


LOC  OBJECT CODE     LINE SOURCE TEXT
  VALUE

07E0                  00239 wr_e:                                   ; erase Page
Message[302]: Register in operand not in bank 0.  Ensure that bank bits are correct.
07E0   1615           00240                 bsf     PMCON1,FREE
07E1                  00241 wr_l:                                   ; write Latches
Message[302]: Register in operand not in bank 0.  Ensure that bank bits are correct.
07E1   1695           00242                 bsf     PMCON1,LWLO
07E2                  00243 wr_w:                                   ; write Page or byte
Message[302]: Register in operand not in bank 0.  Ensure that bank bits are correct.
07E2   1515           00244                 bsf     PMCON1,WREN
07E3   3055           00245                 movlw   0x55
Message[302]: Register in operand not in bank 0.  Ensure that bank bits are correct.
07E4   0096           00246                 movwf   PMCON2
07E5   30AA           00247                 movlw   0xaa
Message[302]: Register in operand not in bank 0.  Ensure that bank bits are correct.
07E6   0096           00248                 movwf   PMCON2
Message[302]: Register in operand not in bank 0.  Ensure that bank bits are correct.
07E7   1495           00249                 bsf     PMCON1,WR       ;WR=1
07E8   0000           00250                 nop
07E9   0000           00251                 nop
Message[302]: Register in operand not in bank 0.  Ensure that bank bits are correct.
07EA   0195           00252                 clrf    PMCON1
07EB   3401           00253                 retlw   0x01
                      00254 
                      00255 ; ********************************************************************
                      00256 ;
                      00257 ;               RS-232C Send 1byte
                      00258 ;
                      00259 ;               Set W and Call (Return:W=0x09,Carry=1,Zero=1)
                      00260 ;
                      00261 ; ********************************************************************
                      00262 
07EC                  00263 SendL:
                      00264 
                      00265    #ifdef Direct_TX
                      00266                 bcf     TXPORT,TX ; TX port Initialization
                      00267    #else
07EC   140C           00268                 bsf     TXPORT,TX
                      00269    #endif
07ED   00FF           00270                 movwf   rxd     ; rxd=w
07EE   27F7           00271                 call    bout+3  ; send start bit
07EF   00FE           00272                 movwf   cn      ; cn=9
07F0   0CFF           00273                 rrf     rxd,f   ; set Carry             ; 1
07F1   27F4           00274                 call    bout    ; wait 1bit and Carry=1 ; 2+1+1+1+1+8N+6=8N+12
07F2   0BFE           00275                 decfsz  cn,f    ; send 10bits?          ; 1
07F3   33FC           00276                 bra     $-3     ; loop                  ; 2(1) total:1+8N+12+1+2=8N+16
                      00277 
07F4                  00278 bout:
                      00279 
                      00280         #ifdef  Direct_TX
                      00281                 btfsc   STATUS,C                        ; 1
                      00282                 bcf     TXPORT,TX                       ; 1
                      00283                 btfss   STATUS,C                        ; 1
                      00284                 bsf     TXPORT,TX                       ; 1
MPASM  5.51  TINYBLD16F1507_8MHZ_INT_9600.ASM   6-9-2014  22:43:50         PAGE  7


LOC  OBJECT CODE     LINE SOURCE TEXT
  VALUE

                      00285         #else
07F4   1803           00286                 btfsc   STATUS,C
07F5   140C           00287                 bsf     TXPORT,TX
07F6   1C03           00288                 btfss   STATUS,C
07F7   100C           00289                 bcf     TXPORT,TX
                      00290         #endif
                      00291 
07F8                  00292 bwait:                          ; wait 1 bit
07F8   27F9           00293                 call    bwait2                          ; 2+(4N+2)+(4N+2)=8N+6
07F9                  00294 bwait2:                         ; wait 1/2bit and Set Carry=1
07F9   30E8           00295                 movlw   .256-((xtal/.4)/baud-.15)/.8    ; 1
07FA   3E01           00296                 addlw   0x01                            ; 1
07FB   1D03           00297                 btfss   STATUS,Z                        ; 1
07FC   33FD           00298                 bra     $-2                             ; 2(1)
07FD   3409           00299                 retlw   0x09                            ; 2 total:1+(1+1+2)*N-1+2=4N+2
                      00300 
                      00301 ;*************************************************************
                      00302 ; After reset
                      00303 ; Do not expect the memory to be zero,
                      00304 ; Do not expect registers to be initialised like in catalog.
                      00305 
Message[303]: Program word too large.  Truncated to core size. (F9C4)
Message[303]: Program word too large.  Truncated to core size. (DDFF)
                      00306                 end
MPASM  5.51  TINYBLD16F1507_8MHZ_INT_9600.ASM   6-9-2014  22:43:50         PAGE  8


SYMBOL TABLE
  LABEL                             VALUE 

ADCON0                            0000009D
ADCON1                            0000009E
ADCON2                            0000009F
ADCS0                             00000004
ADCS1                             00000005
ADCS2                             00000006
ADFM                              00000007
ADFVR0                            00000000
ADFVR1                            00000001
ADGO                              00000001
ADIE                              00000006
ADIF                              00000006
ADON                              00000000
ADPREF0                           00000000
ADPREF1                           00000001
ADRES                             0000009B
ADRESH                            0000009C
ADRESL                            0000009B
ANSA0                             00000000
ANSA1                             00000001
ANSA2                             00000002
ANSA4                             00000004
ANSB4                             00000004
ANSB5                             00000005
ANSC0                             00000000
ANSC1                             00000001
ANSC2                             00000002
ANSC3                             00000003
ANSC6                             00000006
ANSC7                             00000007
ANSELA                            0000018C
ANSELB                            0000018D
ANSELC                            0000018E
APFCON                            0000011D
BORCON                            00000116
BORFS                             00000006
BORRDY                            00000000
BSR                               00000008
BSR0                              00000000
BSR1                              00000001
BSR2                              00000002
BSR3                              00000003
BSR4                              00000004
BSR_ICDSHAD                       00000FE3
BSR_SHAD                          00000FE6
C                                 00000000
CFGS                              00000006
CHS0                              00000002
CHS1                              00000003
CHS2                              00000004
CHS3                              00000005
CHS4                              00000006
CLC1CON                           00000F10
MPASM  5.51  TINYBLD16F1507_8MHZ_INT_9600.ASM   6-9-2014  22:43:50         PAGE  9


SYMBOL TABLE
  LABEL                             VALUE 

CLC1GLS0                          00000F14
CLC1GLS1                          00000F15
CLC1GLS2                          00000F16
CLC1GLS3                          00000F17
CLC1IE                            00000000
CLC1IF                            00000000
CLC1POL                           00000F11
CLC1SEL                           00000001
CLC1SEL0                          00000F12
CLC1SEL1                          00000F13
CLC2CON                           00000F18
CLC2GLS0                          00000F1C
CLC2GLS1                          00000F1D
CLC2GLS2                          00000F1E
CLC2GLS3                          00000F1F
CLC2IE                            00000001
CLC2IF                            00000001
CLC2POL                           00000F19
CLC2SEL0                          00000F1A
CLC2SEL1                          00000F1B
CLCDATA                           00000F0F
CWG1CON0                          00000693
CWG1CON1                          00000694
CWG1CON2                          00000695
CWG1DBF                           00000692
CWG1DBF0                          00000000
CWG1DBF1                          00000001
CWG1DBF2                          00000002
CWG1DBF3                          00000003
CWG1DBF4                          00000004
CWG1DBF5                          00000005
CWG1DBR                           00000691
CWG1DBR0                          00000000
CWG1DBR1                          00000001
CWG1DBR2                          00000002
CWG1DBR3                          00000003
CWG1DBR4                          00000004
CWG1DBR5                          00000005
C_SHAD                            00000000
D1N                               00000000
D1S0                              00000000
D1S1                              00000001
D1S2                              00000002
D1T                               00000001
D2N                               00000002
D2S0                              00000004
D2S1                              00000005
D2S2                              00000006
D2T                               00000003
D3N                               00000004
D3S0                              00000000
D3S1                              00000001
D3S2                              00000002
MPASM  5.51  TINYBLD16F1507_8MHZ_INT_9600.ASM   6-9-2014  22:43:50         PAGE 10


SYMBOL TABLE
  LABEL                             VALUE 

D3T                               00000005
D4N                               00000006
D4S0                              00000004
D4S1                              00000005
D4S2                              00000006
D4T                               00000007
DC                                00000001
DC_SHAD                           00000001
EEPGD                             00000007
F                                 00000001
FREE                              00000004
FSR0                              00000004
FSR0H                             00000005
FSR0H_SHAD                        00000FE9
FSR0L                             00000004
FSR0L_SHAD                        00000FE8
FSR1                              00000006
FSR1H                             00000007
FSR1H_SHAD                        00000FEB
FSR1L                             00000006
FSR1L_SHAD                        00000FEA
FVRCON                            00000117
FVREN                             00000007
FVRRDY                            00000006
G1ARSEN                           00000006
G1ASDLA0                          00000004
G1ASDLA1                          00000005
G1ASDLB0                          00000006
G1ASDLB1                          00000007
G1ASDSCLC2                        00000000
G1ASDSFLT                         00000001
G1ASE                             00000007
G1CS0                             00000000
G1EN                              00000007
G1IS0                             00000000
G1IS1                             00000001
G1IS2                             00000002
G1OEA                             00000005
G1OEB                             00000006
G1POL                             00000000
G1POLA                            00000003
G1POLB                            00000004
G2POL                             00000001
G3POL                             00000002
G4D1N                             00000000
G4D1T                             00000001
G4D2N                             00000002
G4D2T                             00000003
G4D3N                             00000004
G4D3T                             00000005
G4D4N                             00000006
G4D4T                             00000007
G4POL                             00000003
MPASM  5.51  TINYBLD16F1507_8MHZ_INT_9600.ASM   6-9-2014  22:43:50         PAGE 11


SYMBOL TABLE
  LABEL                             VALUE 

GIE                               00000007
GO                                00000001
GO_NOT_DONE                       00000001
HFIOFR                            00000004
HFIOFS                            00000000
INDF0                             00000000
INDF1                             00000001
INTCON                            0000000B
INTE                              00000004
INTEDG                            00000006
INTF                              00000001
IOCAF                             00000393
IOCAF0                            00000000
IOCAF1                            00000001
IOCAF2                            00000002
IOCAF3                            00000003
IOCAF4                            00000004
IOCAF5                            00000005
IOCAN                             00000392
IOCAN0                            00000000
IOCAN1                            00000001
IOCAN2                            00000002
IOCAN3                            00000003
IOCAN4                            00000004
IOCAN5                            00000005
IOCAP                             00000391
IOCAP0                            00000000
IOCAP1                            00000001
IOCAP2                            00000002
IOCAP3                            00000003
IOCAP4                            00000004
IOCAP5                            00000005
IOCBF                             00000396
IOCBF4                            00000004
IOCBF5                            00000005
IOCBF6                            00000006
IOCBF7                            00000007
IOCBN                             00000395
IOCBN4                            00000004
IOCBN5                            00000005
IOCBN6                            00000006
IOCBN7                            00000007
IOCBP                             00000394
IOCBP4                            00000004
IOCBP5                            00000005
IOCBP6                            00000006
IOCBP7                            00000007
IOCIE                             00000003
IOCIF                             00000000
IRCF0                             00000003
IRCF1                             00000004
IRCF2                             00000005
IRCF3                             00000006
MPASM  5.51  TINYBLD16F1507_8MHZ_INT_9600.ASM   6-9-2014  22:43:50         PAGE 12


SYMBOL TABLE
  LABEL                             VALUE 

IdTypePIC                         00000022
IntrareBootloader                 000007A0
LATA                              0000010C
LATA0                             00000000
LATA1                             00000001
LATA2                             00000002
LATA4                             00000004
LATA5                             00000005
LATB                              0000010D
LATB4                             00000004
LATB5                             00000005
LATB6                             00000006
LATB7                             00000007
LATC                              0000010E
LATC0                             00000000
LATC1                             00000001
LATC2                             00000002
LATC3                             00000003
LATC4                             00000004
LATC5                             00000005
LATC6                             00000006
LATC7                             00000007
LC1D1S0                           00000000
LC1D1S1                           00000001
LC1D1S2                           00000002
LC1D2S0                           00000004
LC1D2S1                           00000005
LC1D2S2                           00000006
LC1D3S0                           00000000
LC1D3S1                           00000001
LC1D3S2                           00000002
LC1D4S0                           00000004
LC1D4S1                           00000005
LC1D4S2                           00000006
LC1EN                             00000007
LC1G1D1N                          00000000
LC1G1D1T                          00000001
LC1G1D2N                          00000002
LC1G1D2T                          00000003
LC1G1D3N                          00000004
LC1G1D3T                          00000005
LC1G1D4N                          00000006
LC1G1D4T                          00000007
LC1G1POL                          00000000
LC1G2D1N                          00000000
LC1G2D1T                          00000001
LC1G2D2N                          00000002
LC1G2D2T                          00000003
LC1G2D3N                          00000004
LC1G2D3T                          00000005
LC1G2D4N                          00000006
LC1G2D4T                          00000007
LC1G2POL                          00000001
MPASM  5.51  TINYBLD16F1507_8MHZ_INT_9600.ASM   6-9-2014  22:43:50         PAGE 13


SYMBOL TABLE
  LABEL                             VALUE 

LC1G3D1N                          00000000
LC1G3D1T                          00000001
LC1G3D2N                          00000002
LC1G3D2T                          00000003
LC1G3D3N                          00000004
LC1G3D3T                          00000005
LC1G3D4N                          00000006
LC1G3D4T                          00000007
LC1G3POL                          00000002
LC1G4D1N                          00000000
LC1G4D1T                          00000001
LC1G4D2N                          00000002
LC1G4D2T                          00000003
LC1G4D3N                          00000004
LC1G4D3T                          00000005
LC1G4D4N                          00000006
LC1G4D4T                          00000007
LC1G4POL                          00000003
LC1INTN                           00000003
LC1INTP                           00000004
LC1MODE0                          00000000
LC1MODE1                          00000001
LC1MODE2                          00000002
LC1OE                             00000006
LC1OUT                            00000005
LC1POL                            00000007
LC2D1S0                           00000000
LC2D1S1                           00000001
LC2D1S2                           00000002
LC2D2S0                           00000004
LC2D2S1                           00000005
LC2D2S2                           00000006
LC2D3S0                           00000000
LC2D3S1                           00000001
LC2D3S2                           00000002
LC2D4S0                           00000004
LC2D4S1                           00000005
LC2D4S2                           00000006
LC2EN                             00000007
LC2G1D1N                          00000000
LC2G1D1T                          00000001
LC2G1D2N                          00000002
LC2G1D2T                          00000003
LC2G1D3N                          00000004
LC2G1D3T                          00000005
LC2G1D4N                          00000006
LC2G1D4T                          00000007
LC2G1POL                          00000000
LC2G2D1N                          00000000
LC2G2D1T                          00000001
LC2G2D2N                          00000002
LC2G2D2T                          00000003
LC2G2D3N                          00000004
MPASM  5.51  TINYBLD16F1507_8MHZ_INT_9600.ASM   6-9-2014  22:43:50         PAGE 14


SYMBOL TABLE
  LABEL                             VALUE 

LC2G2D3T                          00000005
LC2G2D4N                          00000006
LC2G2D4T                          00000007
LC2G2POL                          00000001
LC2G3D1N                          00000000
LC2G3D1T                          00000001
LC2G3D2N                          00000002
LC2G3D2T                          00000003
LC2G3D3N                          00000004
LC2G3D3T                          00000005
LC2G3D4N                          00000006
LC2G3D4T                          00000007
LC2G3POL                          00000002
LC2G4D1N                          00000000
LC2G4D1T                          00000001
LC2G4D2N                          00000002
LC2G4D2T                          00000003
LC2G4D3N                          00000004
LC2G4D3T                          00000005
LC2G4D4N                          00000006
LC2G4D4T                          00000007
LC2G4POL                          00000003
LC2INTN                           00000003
LC2INTP                           00000004
LC2MODE0                          00000000
LC2MODE1                          00000001
LC2MODE2                          00000002
LC2OE                             00000006
LC2OUT                            00000005
LC2POL                            00000007
LCEN                              00000007
LCINTN                            00000003
LCINTP                            00000004
LCMODE0                           00000000
LCMODE1                           00000001
LCMODE2                           00000002
LCOE                              00000006
LCOUT                             00000005
LFIOFR                            00000001
LWLO                              00000005
MCLC1OUT                          00000000
MCLC2OUT                          00000001
MainLoop                          000007AE
N1CKS0                            00000000
N1CKS1                            00000001
N1EN                              00000007
N1OE                              00000006
N1OUT                             00000005
N1PFM                             00000000
N1POL                             00000004
N1PWS0                            00000005
N1PWS1                            00000006
N1PWS2                            00000007
MPASM  5.51  TINYBLD16F1507_8MHZ_INT_9600.ASM   6-9-2014  22:43:50         PAGE 15


SYMBOL TABLE
  LABEL                             VALUE 

NCO1ACC                           00000498
NCO1ACC0                          00000000
NCO1ACC1                          00000001
NCO1ACC10                         00000002
NCO1ACC11                         00000003
NCO1ACC12                         00000004
NCO1ACC13                         00000005
NCO1ACC14                         00000006
NCO1ACC15                         00000007
NCO1ACC16                         00000000
NCO1ACC17                         00000001
NCO1ACC18                         00000002
NCO1ACC19                         00000003
NCO1ACC2                          00000002
NCO1ACC3                          00000003
NCO1ACC4                          00000004
NCO1ACC5                          00000005
NCO1ACC6                          00000006
NCO1ACC7                          00000007
NCO1ACC8                          00000000
NCO1ACC9                          00000001
NCO1ACCH                          00000499
NCO1ACCL                          00000498
NCO1ACCU                          0000049A
NCO1CLK                           0000049F
NCO1CON                           0000049E
NCO1IE                            00000002
NCO1IF                            00000002
NCO1INC                           0000049B
NCO1INC0                          00000000
NCO1INC1                          00000001
NCO1INC10                         00000002
NCO1INC11                         00000003
NCO1INC12                         00000004
NCO1INC13                         00000005
NCO1INC14                         00000006
NCO1INC15                         00000007
NCO1INC2                          00000002
NCO1INC3                          00000003
NCO1INC4                          00000004
NCO1INC5                          00000005
NCO1INC6                          00000006
NCO1INC7                          00000007
NCO1INC8                          00000000
NCO1INC9                          00000001
NCO1INCH                          0000049C
NCO1INCL                          0000049B
NCO1INCU                          0000049D
NCO1SEL                           00000000
NOT_BOR                           00000000
NOT_PD                            00000003
NOT_POR                           00000001
NOT_RI                            00000002
MPASM  5.51  TINYBLD16F1507_8MHZ_INT_9600.ASM   6-9-2014  22:43:50         PAGE 16


SYMBOL TABLE
  LABEL                             VALUE 

NOT_RMCLR                         00000003
NOT_RWDT                          00000004
NOT_T1SYNC                        00000002
NOT_TO                            00000004
NOT_WPUEN                         00000007
OPTION_REG                        00000095
OSCCON                            00000099
OSCSTAT                           0000009A
OSTS                              00000005
PCL                               00000002
PCLATH                            0000000A
PCLATH_SHAD                       00000FE7
PCON                              00000096
PEIE                              00000006
PIE1                              00000091
PIE2                              00000092
PIE3                              00000093
PIR1                              00000011
PIR2                              00000012
PIR3                              00000013
PMADR                             00000191
PMADRH                            00000192
PMADRL                            00000191
PMCON1                            00000195
PMCON2                            00000196
PMDAT                             00000193
PMDATH                            00000194
PMDATL                            00000193
POL                               00000007
PORTA                             0000000C
PORTB                             0000000D
PORTC                             0000000E
PR2                               0000001B
PS0                               00000000
PS1                               00000001
PS2                               00000002
PSA                               00000003
PWM1CON                           00000613
PWM1CON0                          00000613
PWM1DCH                           00000612
PWM1DCH0                          00000000
PWM1DCH1                          00000001
PWM1DCH2                          00000002
PWM1DCH3                          00000003
PWM1DCH4                          00000004
PWM1DCH5                          00000005
PWM1DCH6                          00000006
PWM1DCH7                          00000007
PWM1DCL                           00000611
PWM1DCL0                          00000006
PWM1DCL1                          00000007
PWM1EN                            00000007
PWM1OE                            00000006
MPASM  5.51  TINYBLD16F1507_8MHZ_INT_9600.ASM   6-9-2014  22:43:50         PAGE 17


SYMBOL TABLE
  LABEL                             VALUE 

PWM1OUT                           00000005
PWM1POL                           00000004
PWM2CON                           00000616
PWM2CON0                          00000616
PWM2DCH                           00000615
PWM2DCH0                          00000000
PWM2DCH1                          00000001
PWM2DCH2                          00000002
PWM2DCH3                          00000003
PWM2DCH4                          00000004
PWM2DCH5                          00000005
PWM2DCH6                          00000006
PWM2DCH7                          00000007
PWM2DCL                           00000614
PWM2DCL0                          00000006
PWM2DCL1                          00000007
PWM2EN                            00000007
PWM2OE                            00000006
PWM2OUT                           00000005
PWM2POL                           00000004
PWM3CON                           00000619
PWM3CON0                          00000619
PWM3DCH                           00000618
PWM3DCH0                          00000000
PWM3DCH1                          00000001
PWM3DCH2                          00000002
PWM3DCH3                          00000003
PWM3DCH4                          00000004
PWM3DCH5                          00000005
PWM3DCH6                          00000006
PWM3DCH7                          00000007
PWM3DCL                           00000617
PWM3DCL0                          00000006
PWM3DCL1                          00000007
PWM3EN                            00000007
PWM3OE                            00000006
PWM3OUT                           00000005
PWM3POL                           00000004
PWM4CON                           0000061C
PWM4CON0                          0000061C
PWM4DCH                           0000061B
PWM4DCH0                          00000000
PWM4DCH1                          00000001
PWM4DCH2                          00000002
PWM4DCH3                          00000003
PWM4DCH4                          00000004
PWM4DCH5                          00000005
PWM4DCH6                          00000006
PWM4DCH7                          00000007
PWM4DCL                           0000061A
PWM4DCL0                          00000006
PWM4DCL1                          00000007
PWM4EN                            00000007
MPASM  5.51  TINYBLD16F1507_8MHZ_INT_9600.ASM   6-9-2014  22:43:50         PAGE 18


SYMBOL TABLE
  LABEL                             VALUE 

PWM4OE                            00000006
PWM4OUT                           00000005
PWM4POL                           00000004
RA0                               00000000
RA1                               00000001
RA2                               00000002
RA3                               00000003
RA4                               00000004
RA5                               00000005
RB4                               00000004
RB5                               00000005
RB6                               00000006
RB7                               00000007
RC0                               00000000
RC1                               00000001
RC2                               00000002
RC3                               00000003
RC4                               00000004
RC5                               00000005
RC6                               00000006
RC7                               00000007
RD                                00000000
RX                                1
RXP                               1
RXPORT                            PORTA
Receive                           000007C7
SBOREN                            00000007
SCS0                              00000000
SCS1                              00000001
SOSCR                             00000007
STATUS                            00000003
STATUS_SHAD                       00000FE4
STKOVF                            00000007
STKPTR                            00000FED
STKUNF                            00000006
SWDTEN                            00000000
SendL                             000007EC
T0CS                              00000005
T0IE                              00000005
T0IF                              00000002
T0SE                              00000004
T1CKPS0                           00000004
T1CKPS1                           00000005
T1CON                             00000018
T1GCON                            00000019
T1GGO_NOT_DONE                    00000003
T1GPOL                            00000006
T1GSPM                            00000004
T1GSS0                            00000000
T1GSS1                            00000001
T1GTM                             00000005
T1GVAL                            00000002
T1OSCEN                           00000003
MPASM  5.51  TINYBLD16F1507_8MHZ_INT_9600.ASM   6-9-2014  22:43:50         PAGE 19


SYMBOL TABLE
  LABEL                             VALUE 

T2CKPS0                           00000000
T2CKPS1                           00000001
T2CON                             0000001C
TMR0                              00000015
TMR0CS                            00000005
TMR0IE                            00000005
TMR0IF                            00000002
TMR0SE                            00000004
TMR1                              00000016
TMR1CS0                           00000006
TMR1CS1                           00000007
TMR1GE                            00000007
TMR1GIE                           00000007
TMR1GIF                           00000007
TMR1H                             00000017
TMR1IE                            00000000
TMR1IF                            00000000
TMR1L                             00000016
TMR1ON                            00000000
TMR2                              0000001A
TMR2IE                            00000001
TMR2IF                            00000001
TMR2ON                            00000002
TOSH                              00000FEF
TOSL                              00000FEE
TOUTPS0                           00000003
TOUTPS1                           00000004
TOUTPS2                           00000005
TOUTPS3                           00000006
TRIGSEL0                          00000004
TRIGSEL1                          00000005
TRIGSEL2                          00000006
TRIGSEL3                          00000007
TRISA                             0000008C
TRISA0                            00000000
TRISA1                            00000001
TRISA2                            00000002
TRISA3                            00000003
TRISA4                            00000004
TRISA5                            00000005
TRISB                             0000008D
TRISB4                            00000004
TRISB5                            00000005
TRISB6                            00000006
TRISB7                            00000007
TRISC                             0000008E
TRISC0                            00000000
TRISC1                            00000001
TRISC2                            00000002
TRISC3                            00000003
TRISC4                            00000004
TRISC5                            00000005
TRISC6                            00000006
MPASM  5.51  TINYBLD16F1507_8MHZ_INT_9600.ASM   6-9-2014  22:43:50         PAGE 20


SYMBOL TABLE
  LABEL                             VALUE 

TRISC7                            00000007
TSEN                              00000005
TSRNG                             00000004
TX                                0
TXP                               1
TXPORT                            PORTA
VREGCON                           00000197
VREGPM0                           00000000
VREGPM1                           00000001
W                                 00000000
WDTCON                            00000097
WDTPS0                            00000001
WDTPS1                            00000002
WDTPS2                            00000003
WDTPS3                            00000004
WDTPS4                            00000005
WPUA                              0000020C
WPUA0                             00000000
WPUA1                             00000001
WPUA2                             00000002
WPUA3                             00000003
WPUA4                             00000004
WPUA5                             00000005
WPUB                              0000020D
WPUB4                             00000004
WPUB5                             00000005
WPUB6                             00000006
WPUB7                             00000007
WR                                00000001
WREG                              00000009
WREG_SHAD                         00000FE5
WREN                              00000002
WRERR                             00000003
Z                                 00000002
Z_SHAD                            00000002
_BOREN_NSLEEP                     0000FDFF
_BOREN_OFF                        0000F9FF
_BOREN_ON                         0000FFFF
_BOREN_SBODEN                     0000FBFF
_BORV_HI                          0000FBFF
_BORV_LO                          0000FFFF
_CLKOUTEN_OFF                     0000FFFF
_CLKOUTEN_ON                      0000F7FF
_CONFIG1                          00008007
_CONFIG2                          00008008
_CP_OFF                           0000FFFF
_CP_ON                            0000FF7F
_DEVID1                           00008006
_FOSC_ECH                         0000FFFF
_FOSC_ECL                         0000FFFD
_FOSC_ECM                         0000FFFE
_FOSC_INTOSC                      0000FFFC
_IDLOC0                           00008000
MPASM  5.51  TINYBLD16F1507_8MHZ_INT_9600.ASM   6-9-2014  22:43:50         PAGE 21


SYMBOL TABLE
  LABEL                             VALUE 

_IDLOC1                           00008001
_IDLOC2                           00008002
_IDLOC3                           00008003
_LPBOR_OFF                        0000FFFF
_LPBOR_ON                         0000F7FF
_LVP_OFF                          0000DFFF
_LVP_ON                           0000FFFF
_MCLRE_OFF                        0000FFBF
_MCLRE_ON                         0000FFFF
_PWRTE_OFF                        0000FFFF
_PWRTE_ON                         0000FFDF
_STVREN_OFF                       0000FDFF
_STVREN_ON                        0000FFFF
_WDTE_NSLEEP                      0000FFF7
_WDTE_OFF                         0000FFE7
_WDTE_ON                          0000FFFF
_WDTE_SWDTEN                      0000FFEF
_WRT_ALL                          0000FFFC
_WRT_BOOT                         0000FFFE
_WRT_HALF                         0000FFFD
_WRT_OFF                          0000FFFF
__16LF1507                        00000001
__DEBUG                           1
baud                              00002580
bout                              000007F4
bwait                             000007F8
bwait2                            000007F9
cn                                0000007E
cnt1                              0000007B
cnt2                              0000007C
cnt3                              0000007D
crc                               0000007A
first_address                     max_flash-100
loop                              000007D8
mainl                             000007AF
max_flash                         0x800
r1rx11                            000007CC
rcvoct                            000007B7
rpt2                              000007CA
rpt3                              000007CA
rptc                              000007CA
rxd                               0000007F
way_to_exit                       000007DE
wr_e                              000007E0
wr_l                              000007E1
wr_w                              000007E2
xtal                              007A1200
ziieroare                         000007C0
MPASM  5.51  TINYBLD16F1507_8MHZ_INT_9600.ASM   6-9-2014  22:43:50         PAGE 22


MEMORY USAGE MAP ('X' = Used,  '-' = Unused)


0000 : X--------------- ---------------- ---------------- ----------------
0780 : ---------------- ---------------- XXXXXXXXXXXXXXXX XXXXXXXXXXXXXXXX
07C0 : XXXXXXXXXXXXXXXX XXXXXXXXXXXXXXXX XXXXXXXXXXXXXXXX XXXXXXXXXXXXXX--
8000 : -------XX------- ---------------- ---------------- ----------------

All other memory blocks unused.

Program Memory Words Used:    97
Program Memory Words Free:  1951


Errors   :     0
Warnings :     0 reported,     0 suppressed
Messages :    21 reported,     0 suppressed

